<?xml version="1.0"?>
<?xml-stylesheet type="text/xsl" href="pdml2html.xsl"?>
<!-- You can find pdml2html.xsl in /usr/share/wireshark or at http://anonsvn.wireshark.org/trunk/wireshark/pdml2html.xsl. -->
<pdml version="0" creator="wireshark/1.6.14" time="Thu Jul 11 11:05:01 2013" capture_file="pcap/rgmanager--killed-key:alpha.pcap">
<packet>
  <proto name="geninfo" pos="0" showname="General information" size="451">
    <field name="num" pos="0" show="1" showname="Number" value="1" size="451"/>
    <field name="len" pos="0" show="451" showname="Frame Length" value="1c3" size="451"/>
    <field name="caplen" pos="0" show="451" showname="Captured Length" value="1c3" size="451"/>
    <field name="timestamp" pos="0" show="Oct 23, 2011 18:27:05.608754000 JST" showname="Captured Time" value="1319362025.608754000" size="451"/>
  </proto>
  <proto name="frame" showname="Frame 1: 451 bytes on wire (3608 bits), 451 bytes captured (3608 bits)" size="451" pos="0">
    <field name="frame.time" showname="Arrival Time: Oct 23, 2011 18:27:05.608754000 JST" size="0" pos="0" show="Oct 23, 2011 18:27:05.608754000"/>
    <field name="frame.time_epoch" showname="Epoch Time: 1319362025.608754000 seconds" size="0" pos="0" show="1319362025.608754000"/>
    <field name="frame.time_delta" showname="Time delta from previous captured frame: 0.000000000 seconds" size="0" pos="0" show="0.000000000"/>
    <field name="frame.time_delta_displayed" showname="Time delta from previous displayed frame: 0.000000000 seconds" size="0" pos="0" show="0.000000000"/>
    <field name="frame.time_relative" showname="Time since reference or first frame: 0.000000000 seconds" size="0" pos="0" show="0.000000000"/>
    <field name="frame.number" showname="Frame Number: 1" size="0" pos="0" show="1"/>
    <field name="frame.len" showname="Frame Length: 451 bytes (3608 bits)" size="0" pos="0" show="451"/>
    <field name="frame.cap_len" showname="Capture Length: 451 bytes (3608 bits)" size="0" pos="0" show="451"/>
    <field name="frame.marked" showname="Frame is marked: False" size="0" pos="0" show="0"/>
    <field name="frame.ignored" showname="Frame is ignored: False" size="0" pos="0" show="0"/>
    <field name="frame.protocols" showname="Protocols in frame: eth:ip:udp:corosync_totemnet:corosync_totempg:openais_cman:rgmanager" size="0" pos="0" show="eth:ip:udp:corosync_totemnet:corosync_totempg:openais_cman:rgmanager"/>
  </proto>
  <proto name="eth" showname="Ethernet II, Src: 54:52:00:01:00:61 (54:52:00:01:00:61), Dst: IPv4mcast_40:30:50 (01:00:5e:40:30:50)" size="14" pos="0">
    <field name="eth.dst" showname="Destination: IPv4mcast_40:30:50 (01:00:5e:40:30:50)" size="6" pos="0" show="01:00:5e:40:30:50" value="01005e403050">
      <field name="eth.addr" showname="Address: IPv4mcast_40:30:50 (01:00:5e:40:30:50)" size="6" pos="0" show="01:00:5e:40:30:50" value="01005e403050"/>
      <field name="eth.ig" showname=".... ...1 .... .... .... .... = IG bit: Group address (multicast/broadcast)" size="3" pos="0" show="1" value="1" unmaskedvalue="01005e"/>
      <field name="eth.lg" showname=".... ..0. .... .... .... .... = LG bit: Globally unique address (factory default)" size="3" pos="0" show="0" value="0" unmaskedvalue="01005e"/>
    </field>
    <field name="eth.src" showname="Source: 54:52:00:01:00:61 (54:52:00:01:00:61)" size="6" pos="6" show="54:52:00:01:00:61" value="545200010061">
      <field name="eth.addr" showname="Address: 54:52:00:01:00:61 (54:52:00:01:00:61)" size="6" pos="6" show="54:52:00:01:00:61" value="545200010061"/>
      <field name="eth.ig" showname=".... ...0 .... .... .... .... = IG bit: Individual address (unicast)" size="3" pos="6" show="0" value="0" unmaskedvalue="545200"/>
      <field name="eth.lg" showname=".... ..0. .... .... .... .... = LG bit: Globally unique address (factory default)" size="3" pos="6" show="0" value="0" unmaskedvalue="545200"/>
    </field>
    <field name="eth.type" showname="Type: IP (0x0800)" size="2" pos="12" show="0x0800" value="0800"/>
  </proto>
  <proto name="ip" showname="Internet Protocol Version 4, Src: 192.168.151.61 (192.168.151.61), Dst: 239.192.48.80 (239.192.48.80)" size="20" pos="14">
    <field name="ip.version" showname="Version: 4" size="1" pos="14" show="4" value="45"/>
    <field name="ip.hdr_len" showname="Header length: 20 bytes" size="1" pos="14" show="20" value="45"/>
    <field name="ip.dsfield" showname="Differentiated Services Field: 0x00 (DSCP 0x00: Default; ECN: 0x00: Not-ECT (Not ECN-Capable Transport))" size="1" pos="15" show="0" value="00">
      <field name="ip.dsfield.dscp" showname="0000 00.. = Differentiated Services Codepoint: Default (0x00)" size="1" pos="15" show="0x00" value="0" unmaskedvalue="00"/>
      <field name="ip.dsfield.ecn" showname=".... ..00 = Explicit Congestion Notification: Not-ECT (Not ECN-Capable Transport) (0x00)" size="1" pos="15" show="0x00" value="0" unmaskedvalue="00"/>
    </field>
    <field name="ip.len" showname="Total Length: 437" size="2" pos="16" show="437" value="01b5"/>
    <field name="ip.id" showname="Identification: 0x0000 (0)" size="2" pos="18" show="0x0000" value="0000"/>
    <field name="ip.flags" showname="Flags: 0x02 (Don&apos;t Fragment)" size="1" pos="20" show="0x02" value="40">
      <field name="ip.flags.rb" showname="0... .... = Reserved bit: Not set" size="1" pos="20" show="0" value="40"/>
      <field name="ip.flags.df" showname=".1.. .... = Don&apos;t fragment: Set" size="1" pos="20" show="1" value="40"/>
      <field name="ip.flags.mf" showname="..0. .... = More fragments: Not set" size="1" pos="20" show="0" value="40"/>
    </field>
    <field name="ip.frag_offset" showname="Fragment offset: 0" size="2" pos="20" show="0" value="4000"/>
    <field name="ip.ttl" showname="Time to live: 1" size="1" pos="22" show="1" value="01"/>
    <field name="ip.proto" showname="Protocol: UDP (17)" size="1" pos="23" show="17" value="11"/>
    <field name="ip.checksum" showname="Header checksum: 0x0042 [correct]" size="2" pos="24" show="0x0042" value="0042">
      <field name="ip.checksum_good" showname="Good: True" size="2" pos="24" show="1" value="0042"/>
      <field name="ip.checksum_bad" showname="Bad: False" size="2" pos="24" show="0" value="0042"/>
    </field>
    <field name="ip.src" showname="Source: 192.168.151.61 (192.168.151.61)" size="4" pos="26" show="192.168.151.61" value="c0a8973d"/>
    <field name="ip.addr" showname="Source or Destination Address: 192.168.151.61 (192.168.151.61)" hide="yes" size="4" pos="26" show="192.168.151.61" value="c0a8973d"/>
    <field name="ip.src_host" showname="Source Host: 192.168.151.61" hide="yes" size="4" pos="26" show="192.168.151.61" value="c0a8973d"/>
    <field name="ip.host" showname="Source or Destination Host: 192.168.151.61" hide="yes" size="4" pos="26" show="192.168.151.61" value="c0a8973d"/>
    <field name="ip.dst" showname="Destination: 239.192.48.80 (239.192.48.80)" size="4" pos="30" show="239.192.48.80" value="efc03050"/>
    <field name="ip.addr" showname="Source or Destination Address: 239.192.48.80 (239.192.48.80)" hide="yes" size="4" pos="30" show="239.192.48.80" value="efc03050"/>
    <field name="ip.dst_host" showname="Destination Host: 239.192.48.80" hide="yes" size="4" pos="30" show="239.192.48.80" value="efc03050"/>
    <field name="ip.host" showname="Source or Destination Host: 239.192.48.80" hide="yes" size="4" pos="30" show="239.192.48.80" value="efc03050"/>
  </proto>
  <proto name="udp" showname="User Datagram Protocol, Src Port: hpoms-dps-lstn (5404), Dst Port: netsupport (5405)" size="8" pos="34">
    <field name="udp.srcport" showname="Source port: hpoms-dps-lstn (5404)" size="2" pos="34" show="5404" value="151c"/>
    <field name="udp.dstport" showname="Destination port: netsupport (5405)" size="2" pos="36" show="5405" value="151d"/>
    <field name="udp.port" showname="Source or Destination Port: 5404" hide="yes" size="2" pos="34" show="5404" value="151c"/>
    <field name="udp.port" showname="Source or Destination Port: 5405" hide="yes" size="2" pos="36" show="5405" value="151d"/>
    <field name="udp.length" showname="Length: 417" size="2" pos="38" show="417" value="01a1"/>
    <field name="udp.checksum_coverage" showname="Checksum coverage: 417" hide="yes" size="0" pos="38" show="417"/>
    <field name="udp.checksum" showname="Checksum: 0xe967 [validation disabled]" size="2" pos="40" show="0xe967" value="e967">
      <field name="udp.checksum_good" showname="Good Checksum: False" size="2" pos="40" show="0" value="e967"/>
      <field name="udp.checksum_bad" showname="Bad Checksum: False" size="2" pos="40" show="0" value="e967"/>
    </field>
  </proto>
  <proto name="corosync_totemnet" showname="Totemnet Layer of Corosync Cluster Engine" size="408" pos="0">
    <field name="corosync_totemnet.security_header_hash_digest" showname="Hash digest: 6671a63d606af63ddede329629a48dc1ba9c1db4" size="20" pos="0" show="66:71:a6:3d:60:6a:f6:3d:de:de:32:96:29:a4:8d:c1:ba:9c:1d:b4" value="6671a63d606af63ddede329629a48dc1ba9c1db4"/>
    <field name="corosync_totemnet.security_header_salt" showname="Salt: 51f765fa7e0088f1e6b74cf5aa2f35d5" size="16" pos="20" show="51:f7:65:fa:7e:00:88:f1:e6:b7:4c:f5:aa:2f:35:d5" value="51f765fa7e0088f1e6b74cf5aa2f35d5"/>
    <field name="corosync_totemnet.security_crypto_type" showname="Cryptographic Type: SOBER (0)" size="1" pos="407" show="0" value="00"/>
    <field name="corosync_totemnet.security_crypto_key" showname="alpha" size="0" pos="0" show="" value=""/>
  </proto>
  <proto name="corosync_totemsrp" showname="Totem Single Ring Protocol implemented in Corosync Cluster Engine" size="372" pos="36">
    <field name="corosync_totemsrp.message_header.type" showname="Type: mcast (1)" size="1" pos="36" show="1" value="01"/>
    <field name="corosync_totemsrp.message_header.encapsulated" showname="Encapsulated: not encapsulated (2)" size="1" pos="37" show="2" value="02"/>
    <field name="corosync_totemsrp.message_header.endian_detector" showname="Endian detector: 0xff22" size="2" pos="38" show="0xff22" value="22ff"/>
    <field name="corosync_totemsrp.message_header.nodeid" showname="Node ID: 1" size="4" pos="40" show="1" value="01000000"/>
    <field name="corosync_totemsrp.mcast" showname="ring ordered multicast message" size="364" pos="44" show="" value="">
      <field name="corosync_totemsrp.mcast.system_from" showname="System from address" size="44" pos="44" show="" value="">
        <field name="corosync_totemsrp.ip_address" showname="Node IP address (interface: 0; node: 1)" size="22" pos="44" show="" value="">
          <field name="corosync_totemsrp.ip_address.nodeid" showname="Node ID: 1" size="4" pos="44" show="1" value="01000000"/>
          <field name="corosync_totemsrp.ip_address.family" showname="Address family: AF_INET (2)" size="2" pos="48" show="2" value="0200"/>
          <field name="corosync_totemsrp.ip_address.addr4" showname="Address: 192.168.151.61 (192.168.151.61)" size="4" pos="50" show="192.168.151.61" value="c0a8973d"/>
          <field name="corosync_totemsrp.ip_address.addr4_padding" showname="Address padding: 08000200c0a8973d08000400" size="12" pos="54" show="08:00:02:00:c0:a8:97:3d:08:00:04:00" value="08000200c0a8973d08000400"/>
        </field>
        <field name="corosync_totemsrp.ip_address" showname="Node IP address (interface: 1; node: 0)" size="22" pos="66" show="" value="">
          <field name="corosync_totemsrp.ip_address.nodeid" showname="Node ID: 0" size="4" pos="66" show="0" value="00000000"/>
          <field name="corosync_totemsrp.ip_address.family" showname="Address family: Unknown (0)" size="2" pos="70" show="0" value="0000"/>
          <field name="corosync_totemsrp.ip_address.addr" showname="Address: 00000000000000000000000000000000" size="16" pos="72" show="00:00:00:00:00:00:00:00:00:00:00:00:00:00:00:00" value="00000000000000000000000000000000"/>
        </field>
      </field>
      <field name="corosync_totemsrp.mcast.seq" showname="Multicast sequence number: 174" size="4" pos="88" show="174" value="ae000000"/>
      <field name="corosync_totemsrp.mcast.this_seqno" showname="This Sequence number: 98" size="4" pos="92" show="98" value="62000000"/>
      <field name="corosync_totemsrp.memb_ring_id" showname="Member ring id (node: 1)" size="30" pos="96" show="" value="">
        <field name="corosync_totemsrp.ip_address" showname="Node IP address (node: 1)" size="22" pos="96" show="" value="">
          <field name="corosync_totemsrp.ip_address.nodeid" showname="Node ID: 1" size="4" pos="96" show="1" value="01000000"/>
          <field name="corosync_totemsrp.ip_address.family" showname="Address family: AF_INET (2)" size="2" pos="100" show="2" value="0200"/>
          <field name="corosync_totemsrp.ip_address.addr4" showname="Address: 192.168.151.61 (192.168.151.61)" size="4" pos="102" show="192.168.151.61" value="c0a8973d"/>
          <field name="corosync_totemsrp.ip_address.addr4_padding" showname="Address padding: 08000200c0a8973d08000400" size="12" pos="106" show="08:00:02:00:c0:a8:97:3d:08:00:04:00" value="08000200c0a8973d08000400"/>
        </field>
        <field name="corosync_totemsrp.memb_ring_id.seq" showname="Squence in member ring id: 30000" size="8" pos="118" show="30000" value="3075000000000000"/>
      </field>
      <field name="corosync_totemsrp.mcast.node_id" showname="Node id(unused?): 0" size="4" pos="126" show="0" value="00000000"/>
      <field name="corosync_totemsrp.mcast.guarantee" showname="Guarantee: 0" size="4" pos="130" show="0" value="00000000"/>
    </field>
  </proto>
  <proto name="corosync_totempg" showname="Process Group Layer of Corosync Cluster Engine" size="274" pos="134">
    <field name="corosync_totempg.mcast_header" showname="Multicast packet header" size="4" pos="134" show="" value="">
      <field name="corosync_totempg.mcast_header.version" showname="Version: 0" size="2" pos="134" show="0" value="0000"/>
      <field name="corosync_totempg.mcast_header.type" showname="Type: 9757" size="2" pos="136" show="9757" value="1d26"/>
    </field>
    <field name="corosync_totempg.fragmented" showname="Fragment flag: 0" size="1" pos="138" show="0" value="00"/>
    <field name="corosync_totempg.continuation" showname="Continuation flag: 0" size="1" pos="139" show="0" value="00"/>
    <field name="corosync_totempg.msg_count" showname="Count of messages: 1" size="2" pos="140" show="1" value="0100"/>
    <field name="corosync_totempg.msg_len" showname="Length of message: 264 (msg index: 0)" size="2" pos="142" show="264" value="0801"/>
    <field name="corosync_totempg.mcast_message" showname="Multicast packet message (msg index: 0)" size="264" pos="144" show="" value="">
      <field name="corosync_totempg.group_count" showname="Group count: 1" size="2" pos="144" show="1" value="0100"/>
      <field name="corosync_totempg.group_len" showname="Length of group name: 4 (group index: 0)" size="2" pos="146" show="4" value="0400"/>
      <field name="corosync_totempg.group_name" showname="Group name: CMAN (group index: 0)" size="4" pos="148" show="CMAN" value="434d414e"/>
      <proto name="openais_cman" showname="Cman running on OpenAIS" size="256" pos="152">
        <field name="openais_cman.tgtport" showname="Target port number: 177 (RGMANAGER)" size="1" pos="152" show="177" value="b1"/>
        <field name="openais_cman.srcport" showname="Source port number: 177" size="1" pos="153" show="177" value="b1"/>
        <field name="openais_cman.pad" showname="Padding: 445" size="2" pos="154" show="445" value="bd01"/>
        <field name="openais_cman.flags" showname="Flags: 0" size="4" pos="156" show="0" value="00000000"/>
        <field name="openais_cman.srcid" showname="Source node id: 1" size="4" pos="160" show="1" value="01000000"/>
        <field name="openais_cman.tgtid" showname="Target node id: 0 (whole cluster)" size="4" pos="164" show="0" value="00000000"/>
        <proto name="rgmanager" showname="Resource group manager" size="240" pos="168">
          <field name="rgmanager.cluster_msg_header.src_ctx" showname="Source context: 4" size="4" pos="168" show="4" value="00000004"/>
          <field name="rgmanager.cluster_msg_header.src_nodeid" showname="Source node id: 1" size="4" pos="172" show="1" value="00000001"/>
          <field name="rgmanager.cluster_msg_header.dest_ctx" showname="Destination context: 0 (broadcast)" size="4" pos="176" show="0" value="00000000"/>
          <field name="rgmanager.cluster_msg_header.dest_nodeid" showname="Destination node id: 0" size="4" pos="180" show="0" value="00000000"/>
          <field name="rgmanager.cluster_msg_header.msg_contorol" showname="Message contorol: data (4)" size="1" pos="184" show="4" value="04"/>
          <field name="rgmanager.cluster_msg_header.msg_port" showname="Message port: 177" size="1" pos="185" show="177" value="b1"/>
          <field name="rgmanager.cluster_msg_header.pad" showname="Padding: 0x0000" size="2" pos="186" show="0x0000" value="0000"/>
          <field name="rgmanager.cluster_msg_header.reserved" showname="Reserved: 000000000000000000000000" size="12" pos="188" show="00:00:00:00:00:00:00:00:00:00:00:00" value="000000000000000000000000"/>
          <field name="rgmanager.generic_msg_hdr.magic" showname="Magic: version 0 (0x123abc00)" size="4" pos="200" show="0x123abc00" value="123abc00"/>
          <field name="rgmanager.generic_msg_hdr.length" showname="Length: 208" size="4" pos="204" show="208" value="000000d0"/>
          <field name="rgmanager.generic_msg_hdr.command" showname="Command: view formation message (0x00003000)" size="4" pos="208" show="0x00003000" value="00003000"/>
          <field name="rgmanager.generic_msg_hdr.vf_command" showname="View formation command holder: 0x00003001, VF command: join view, VF flags: Unknown" size="4" pos="212" show="0x00003001" value="00003001">
            <field name="rgmanager.vf_command" showname=".... .... .... .... 0011 0000 0000 0001 = VF command: join view (0x00003001)" size="4" pos="212" show="0x00003001" value="3001" unmaskedvalue="00003001"/>
            <field name="rgmanager.vf_flags" showname="0000 0000 0000 0000 .... .... .... .... = VF flags: Unknown (0x00000000)" size="4" pos="212" show="0x00000000" value="0" unmaskedvalue="00003001"/>
          </field>
          <field name="rgmanager.generic_msg_hdr.arg2" showname="Arguement 2: 0 (unused)" size="4" pos="216" show="0" value="00000000"/>
          <field name="rgmanager.generic_msg_hdr.arg3" showname="Arguement 3: 0 (unused)" size="4" pos="220" show="0" value="00000000"/>
          <field name="rgmanager.vf_msg_info" showname="View formation message" size="184" pos="224" show="" value="">
            <field name="rgmanager.vf_msg_info.vf_command" showname=".... .... .... .... 0000 0000 0000 0000 = Command (unused): Unknown (0x00000000)" size="4" pos="224" show="0x00000000" value="0" unmaskedvalue="00000000"/>
            <field name="rgmanager.vf_msg_info.vf_transaction" showname="Transaction: 0x00010001" size="4" pos="228" show="0x00010001" value="00010001"/>
            <field name="rgmanager.vf_msg_info.vf_keyid" showname="Key id: rg=&quot;service:web&quot;" size="64" pos="232" show="rg=\&quot;service:web\&quot;" value="72673d22736572766963653a77656222000000000000000000000000000000000000000000000000000000000000000000000000000000000000000000000000"/>
            <field name="rgmanager.vf_msg_info.vf_coordinator" showname="Coordinator: 1" size="4" pos="296" show="1" value="00000001"/>
            <field name="rgmanager.vf_msg_info.vf_datalen" showname="Data length: 96" size="4" pos="300" show="96" value="00000060"/>
            <field name="rgmanager.vf_msg_info.vf_view" showname="View: 0x0000000000000013" size="8" pos="304" show="0x0000000000000013" value="0000000000000013"/>
            <field name="rgmanager.vf_msg_info.vf_data" showname="Data: service:web" size="96" pos="312" show="service:web" value="736572766963653a7765620000000000000000000000000000000000000000000000000000000000000000000000000000000000000000000000000000000000000000000000000001000000020000006f000000000000005f5fa34e00000000">
              <field name="rgmanager.rg_state.rs_name" showname="Name of resource group: service:web" size="64" pos="312" show="service:web" value="736572766963653a7765620000000000000000000000000000000000000000000000000000000000000000000000000000000000000000000000000000000000"/>
              <field name="rgmanager.rg_state.rs_flags" showname="Flags of resource group : 0" size="4" pos="376" show="0" value="00000000"/>
              <field name="rgmanager.rg_state.rs_magic" showname="Magic : 0x00000000" size="4" pos="380" show="0x00000000" value="00000000"/>
              <field name="rgmanager.rg_state.rs_owner" showname="Owner of resource group : 1" size="4" pos="384" show="1" value="01000000"/>
              <field name="rgmanager.rg_state.rs_last_owner" showname="The last owner of resource group : 2" size="4" pos="388" show="2" value="02000000"/>
              <field name="rgmanager.rg_state.rs_state" showname="The state of resource group: starting (111)" size="4" pos="392" show="111" value="6f000000"/>
              <field name="rgmanager.rg_state.rs_restarts" showname="The number of restarts: 0" size="4" pos="396" show="0" value="00000000"/>
              <field name="rgmanager.rg_state.rs_transition" showname="The last service transaction time: 1319329631" size="8" pos="400" show="1319329631" value="5f5fa34e00000000"/>
              <field name="" show="Sun Oct 23 09:27:11 2011" size="8" pos="400" value="5f5fa34e00000000"/>
            </field>
          </field>
        </proto>
      </proto>
    </field>
  </proto>
</packet>


<packet>
  <proto name="geninfo" pos="0" showname="General information" size="451">
    <field name="num" pos="0" show="2" showname="Number" value="2" size="451"/>
    <field name="len" pos="0" show="451" showname="Frame Length" value="1c3" size="451"/>
    <field name="caplen" pos="0" show="451" showname="Captured Length" value="1c3" size="451"/>
    <field name="timestamp" pos="0" show="Oct 23, 2011 18:27:06.551317000 JST" showname="Captured Time" value="1319362026.551317000" size="451"/>
  </proto>
  <proto name="frame" showname="Frame 2: 451 bytes on wire (3608 bits), 451 bytes captured (3608 bits)" size="451" pos="0">
    <field name="frame.time" showname="Arrival Time: Oct 23, 2011 18:27:06.551317000 JST" size="0" pos="0" show="Oct 23, 2011 18:27:06.551317000"/>
    <field name="frame.time_epoch" showname="Epoch Time: 1319362026.551317000 seconds" size="0" pos="0" show="1319362026.551317000"/>
    <field name="frame.time_delta" showname="Time delta from previous captured frame: 0.942563000 seconds" size="0" pos="0" show="0.942563000"/>
    <field name="frame.time_delta_displayed" showname="Time delta from previous displayed frame: 0.942563000 seconds" size="0" pos="0" show="0.942563000"/>
    <field name="frame.time_relative" showname="Time since reference or first frame: 0.942563000 seconds" size="0" pos="0" show="0.942563000"/>
    <field name="frame.number" showname="Frame Number: 2" size="0" pos="0" show="2"/>
    <field name="frame.len" showname="Frame Length: 451 bytes (3608 bits)" size="0" pos="0" show="451"/>
    <field name="frame.cap_len" showname="Capture Length: 451 bytes (3608 bits)" size="0" pos="0" show="451"/>
    <field name="frame.marked" showname="Frame is marked: False" size="0" pos="0" show="0"/>
    <field name="frame.ignored" showname="Frame is ignored: False" size="0" pos="0" show="0"/>
    <field name="frame.protocols" showname="Protocols in frame: eth:ip:udp:corosync_totemnet:corosync_totempg:openais_cman:rgmanager" size="0" pos="0" show="eth:ip:udp:corosync_totemnet:corosync_totempg:openais_cman:rgmanager"/>
  </proto>
  <proto name="eth" showname="Ethernet II, Src: 54:52:00:01:00:61 (54:52:00:01:00:61), Dst: IPv4mcast_40:30:50 (01:00:5e:40:30:50)" size="14" pos="0">
    <field name="eth.dst" showname="Destination: IPv4mcast_40:30:50 (01:00:5e:40:30:50)" size="6" pos="0" show="01:00:5e:40:30:50" value="01005e403050">
      <field name="eth.addr" showname="Address: IPv4mcast_40:30:50 (01:00:5e:40:30:50)" size="6" pos="0" show="01:00:5e:40:30:50" value="01005e403050"/>
      <field name="eth.ig" showname=".... ...1 .... .... .... .... = IG bit: Group address (multicast/broadcast)" size="3" pos="0" show="1" value="1" unmaskedvalue="01005e"/>
      <field name="eth.lg" showname=".... ..0. .... .... .... .... = LG bit: Globally unique address (factory default)" size="3" pos="0" show="0" value="0" unmaskedvalue="01005e"/>
    </field>
    <field name="eth.src" showname="Source: 54:52:00:01:00:61 (54:52:00:01:00:61)" size="6" pos="6" show="54:52:00:01:00:61" value="545200010061">
      <field name="eth.addr" showname="Address: 54:52:00:01:00:61 (54:52:00:01:00:61)" size="6" pos="6" show="54:52:00:01:00:61" value="545200010061"/>
      <field name="eth.ig" showname=".... ...0 .... .... .... .... = IG bit: Individual address (unicast)" size="3" pos="6" show="0" value="0" unmaskedvalue="545200"/>
      <field name="eth.lg" showname=".... ..0. .... .... .... .... = LG bit: Globally unique address (factory default)" size="3" pos="6" show="0" value="0" unmaskedvalue="545200"/>
    </field>
    <field name="eth.type" showname="Type: IP (0x0800)" size="2" pos="12" show="0x0800" value="0800"/>
  </proto>
  <proto name="ip" showname="Internet Protocol Version 4, Src: 192.168.151.61 (192.168.151.61), Dst: 239.192.48.80 (239.192.48.80)" size="20" pos="14">
    <field name="ip.version" showname="Version: 4" size="1" pos="14" show="4" value="45"/>
    <field name="ip.hdr_len" showname="Header length: 20 bytes" size="1" pos="14" show="20" value="45"/>
    <field name="ip.dsfield" showname="Differentiated Services Field: 0x00 (DSCP 0x00: Default; ECN: 0x00: Not-ECT (Not ECN-Capable Transport))" size="1" pos="15" show="0" value="00">
      <field name="ip.dsfield.dscp" showname="0000 00.. = Differentiated Services Codepoint: Default (0x00)" size="1" pos="15" show="0x00" value="0" unmaskedvalue="00"/>
      <field name="ip.dsfield.ecn" showname=".... ..00 = Explicit Congestion Notification: Not-ECT (Not ECN-Capable Transport) (0x00)" size="1" pos="15" show="0x00" value="0" unmaskedvalue="00"/>
    </field>
    <field name="ip.len" showname="Total Length: 437" size="2" pos="16" show="437" value="01b5"/>
    <field name="ip.id" showname="Identification: 0x0000 (0)" size="2" pos="18" show="0x0000" value="0000"/>
    <field name="ip.flags" showname="Flags: 0x02 (Don&apos;t Fragment)" size="1" pos="20" show="0x02" value="40">
      <field name="ip.flags.rb" showname="0... .... = Reserved bit: Not set" size="1" pos="20" show="0" value="40"/>
      <field name="ip.flags.df" showname=".1.. .... = Don&apos;t fragment: Set" size="1" pos="20" show="1" value="40"/>
      <field name="ip.flags.mf" showname="..0. .... = More fragments: Not set" size="1" pos="20" show="0" value="40"/>
    </field>
    <field name="ip.frag_offset" showname="Fragment offset: 0" size="2" pos="20" show="0" value="4000"/>
    <field name="ip.ttl" showname="Time to live: 1" size="1" pos="22" show="1" value="01"/>
    <field name="ip.proto" showname="Protocol: UDP (17)" size="1" pos="23" show="17" value="11"/>
    <field name="ip.checksum" showname="Header checksum: 0x0042 [correct]" size="2" pos="24" show="0x0042" value="0042">
      <field name="ip.checksum_good" showname="Good: True" size="2" pos="24" show="1" value="0042"/>
      <field name="ip.checksum_bad" showname="Bad: False" size="2" pos="24" show="0" value="0042"/>
    </field>
    <field name="ip.src" showname="Source: 192.168.151.61 (192.168.151.61)" size="4" pos="26" show="192.168.151.61" value="c0a8973d"/>
    <field name="ip.addr" showname="Source or Destination Address: 192.168.151.61 (192.168.151.61)" hide="yes" size="4" pos="26" show="192.168.151.61" value="c0a8973d"/>
    <field name="ip.src_host" showname="Source Host: 192.168.151.61" hide="yes" size="4" pos="26" show="192.168.151.61" value="c0a8973d"/>
    <field name="ip.host" showname="Source or Destination Host: 192.168.151.61" hide="yes" size="4" pos="26" show="192.168.151.61" value="c0a8973d"/>
    <field name="ip.dst" showname="Destination: 239.192.48.80 (239.192.48.80)" size="4" pos="30" show="239.192.48.80" value="efc03050"/>
    <field name="ip.addr" showname="Source or Destination Address: 239.192.48.80 (239.192.48.80)" hide="yes" size="4" pos="30" show="239.192.48.80" value="efc03050"/>
    <field name="ip.dst_host" showname="Destination Host: 239.192.48.80" hide="yes" size="4" pos="30" show="239.192.48.80" value="efc03050"/>
    <field name="ip.host" showname="Source or Destination Host: 239.192.48.80" hide="yes" size="4" pos="30" show="239.192.48.80" value="efc03050"/>
  </proto>
  <proto name="udp" showname="User Datagram Protocol, Src Port: hpoms-dps-lstn (5404), Dst Port: netsupport (5405)" size="8" pos="34">
    <field name="udp.srcport" showname="Source port: hpoms-dps-lstn (5404)" size="2" pos="34" show="5404" value="151c"/>
    <field name="udp.dstport" showname="Destination port: netsupport (5405)" size="2" pos="36" show="5405" value="151d"/>
    <field name="udp.port" showname="Source or Destination Port: 5404" hide="yes" size="2" pos="34" show="5404" value="151c"/>
    <field name="udp.port" showname="Source or Destination Port: 5405" hide="yes" size="2" pos="36" show="5405" value="151d"/>
    <field name="udp.length" showname="Length: 417" size="2" pos="38" show="417" value="01a1"/>
    <field name="udp.checksum_coverage" showname="Checksum coverage: 417" hide="yes" size="0" pos="38" show="417"/>
    <field name="udp.checksum" showname="Checksum: 0xfbd9 [validation disabled]" size="2" pos="40" show="0xfbd9" value="fbd9">
      <field name="udp.checksum_good" showname="Good Checksum: False" size="2" pos="40" show="0" value="fbd9"/>
      <field name="udp.checksum_bad" showname="Bad Checksum: False" size="2" pos="40" show="0" value="fbd9"/>
    </field>
  </proto>
  <proto name="corosync_totemnet" showname="Totemnet Layer of Corosync Cluster Engine" size="408" pos="0">
    <field name="corosync_totemnet.security_header_hash_digest" showname="Hash digest: cae80c0b5bf718fa42c5bd974c6a5894b92a9820" size="20" pos="0" show="ca:e8:0c:0b:5b:f7:18:fa:42:c5:bd:97:4c:6a:58:94:b9:2a:98:20" value="cae80c0b5bf718fa42c5bd974c6a5894b92a9820"/>
    <field name="corosync_totemnet.security_header_salt" showname="Salt: d10bbbab522ee8ad3f5a69587c629f71" size="16" pos="20" show="d1:0b:bb:ab:52:2e:e8:ad:3f:5a:69:58:7c:62:9f:71" value="d10bbbab522ee8ad3f5a69587c629f71"/>
    <field name="corosync_totemnet.security_crypto_type" showname="Cryptographic Type: SOBER (0)" size="1" pos="407" show="0" value="00"/>
    <field name="corosync_totemnet.security_crypto_key" showname="alpha" size="0" pos="0" show="" value=""/>
  </proto>
  <proto name="corosync_totemsrp" showname="Totem Single Ring Protocol implemented in Corosync Cluster Engine" size="372" pos="36">
    <field name="corosync_totemsrp.message_header.type" showname="Type: mcast (1)" size="1" pos="36" show="1" value="01"/>
    <field name="corosync_totemsrp.message_header.encapsulated" showname="Encapsulated: not encapsulated (2)" size="1" pos="37" show="2" value="02"/>
    <field name="corosync_totemsrp.message_header.endian_detector" showname="Endian detector: 0xff22" size="2" pos="38" show="0xff22" value="22ff"/>
    <field name="corosync_totemsrp.message_header.nodeid" showname="Node ID: 1" size="4" pos="40" show="1" value="01000000"/>
    <field name="corosync_totemsrp.mcast" showname="ring ordered multicast message" size="364" pos="44" show="" value="">
      <field name="corosync_totemsrp.mcast.system_from" showname="System from address" size="44" pos="44" show="" value="">
        <field name="corosync_totemsrp.ip_address" showname="Node IP address (interface: 0; node: 1)" size="22" pos="44" show="" value="">
          <field name="corosync_totemsrp.ip_address.nodeid" showname="Node ID: 1" size="4" pos="44" show="1" value="01000000"/>
          <field name="corosync_totemsrp.ip_address.family" showname="Address family: AF_INET (2)" size="2" pos="48" show="2" value="0200"/>
          <field name="corosync_totemsrp.ip_address.addr4" showname="Address: 192.168.151.61 (192.168.151.61)" size="4" pos="50" show="192.168.151.61" value="c0a8973d"/>
          <field name="corosync_totemsrp.ip_address.addr4_padding" showname="Address padding: 08000200c0a8973d08000400" size="12" pos="54" show="08:00:02:00:c0:a8:97:3d:08:00:04:00" value="08000200c0a8973d08000400"/>
        </field>
        <field name="corosync_totemsrp.ip_address" showname="Node IP address (interface: 1; node: 0)" size="22" pos="66" show="" value="">
          <field name="corosync_totemsrp.ip_address.nodeid" showname="Node ID: 0" size="4" pos="66" show="0" value="00000000"/>
          <field name="corosync_totemsrp.ip_address.family" showname="Address family: Unknown (0)" size="2" pos="70" show="0" value="0000"/>
          <field name="corosync_totemsrp.ip_address.addr" showname="Address: 00000000000000000000000000000000" size="16" pos="72" show="00:00:00:00:00:00:00:00:00:00:00:00:00:00:00:00" value="00000000000000000000000000000000"/>
        </field>
      </field>
      <field name="corosync_totemsrp.mcast.seq" showname="Multicast sequence number: 177" size="4" pos="88" show="177" value="b1000000"/>
      <field name="corosync_totemsrp.mcast.this_seqno" showname="This Sequence number: 101" size="4" pos="92" show="101" value="65000000"/>
      <field name="corosync_totemsrp.memb_ring_id" showname="Member ring id (node: 1)" size="30" pos="96" show="" value="">
        <field name="corosync_totemsrp.ip_address" showname="Node IP address (node: 1)" size="22" pos="96" show="" value="">
          <field name="corosync_totemsrp.ip_address.nodeid" showname="Node ID: 1" size="4" pos="96" show="1" value="01000000"/>
          <field name="corosync_totemsrp.ip_address.family" showname="Address family: AF_INET (2)" size="2" pos="100" show="2" value="0200"/>
          <field name="corosync_totemsrp.ip_address.addr4" showname="Address: 192.168.151.61 (192.168.151.61)" size="4" pos="102" show="192.168.151.61" value="c0a8973d"/>
          <field name="corosync_totemsrp.ip_address.addr4_padding" showname="Address padding: 08000200c0a8973d08000400" size="12" pos="106" show="08:00:02:00:c0:a8:97:3d:08:00:04:00" value="08000200c0a8973d08000400"/>
        </field>
        <field name="corosync_totemsrp.memb_ring_id.seq" showname="Squence in member ring id: 30000" size="8" pos="118" show="30000" value="3075000000000000"/>
      </field>
      <field name="corosync_totemsrp.mcast.node_id" showname="Node id(unused?): 0" size="4" pos="126" show="0" value="00000000"/>
      <field name="corosync_totemsrp.mcast.guarantee" showname="Guarantee: 0" size="4" pos="130" show="0" value="00000000"/>
    </field>
  </proto>
  <proto name="corosync_totempg" showname="Process Group Layer of Corosync Cluster Engine" size="274" pos="134">
    <field name="corosync_totempg.mcast_header" showname="Multicast packet header" size="4" pos="134" show="" value="">
      <field name="corosync_totempg.mcast_header.version" showname="Version: 0" size="2" pos="134" show="0" value="0000"/>
      <field name="corosync_totempg.mcast_header.type" showname="Type: 0" size="2" pos="136" show="0" value="0000"/>
    </field>
    <field name="corosync_totempg.fragmented" showname="Fragment flag: 0" size="1" pos="138" show="0" value="00"/>
    <field name="corosync_totempg.continuation" showname="Continuation flag: 0" size="1" pos="139" show="0" value="00"/>
    <field name="corosync_totempg.msg_count" showname="Count of messages: 1" size="2" pos="140" show="1" value="0100"/>
    <field name="corosync_totempg.msg_len" showname="Length of message: 264 (msg index: 0)" size="2" pos="142" show="264" value="0801"/>
    <field name="corosync_totempg.mcast_message" showname="Multicast packet message (msg index: 0)" size="264" pos="144" show="" value="">
      <field name="corosync_totempg.group_count" showname="Group count: 1" size="2" pos="144" show="1" value="0100"/>
      <field name="corosync_totempg.group_len" showname="Length of group name: 4 (group index: 0)" size="2" pos="146" show="4" value="0400"/>
      <field name="corosync_totempg.group_name" showname="Group name: CMAN (group index: 0)" size="4" pos="148" show="CMAN" value="434d414e"/>
      <proto name="openais_cman" showname="Cman running on OpenAIS" size="256" pos="152">
        <field name="openais_cman.tgtport" showname="Target port number: 177 (RGMANAGER)" size="1" pos="152" show="177" value="b1"/>
        <field name="openais_cman.srcport" showname="Source port number: 177" size="1" pos="153" show="177" value="b1"/>
        <field name="openais_cman.pad" showname="Padding: 62395" size="2" pos="154" show="62395" value="bbf3"/>
        <field name="openais_cman.flags" showname="Flags: 0" size="4" pos="156" show="0" value="00000000"/>
        <field name="openais_cman.srcid" showname="Source node id: 1" size="4" pos="160" show="1" value="01000000"/>
        <field name="openais_cman.tgtid" showname="Target node id: 0 (whole cluster)" size="4" pos="164" show="0" value="00000000"/>
        <proto name="rgmanager" showname="Resource group manager" size="240" pos="168">
          <field name="rgmanager.cluster_msg_header.src_ctx" showname="Source context: 5" size="4" pos="168" show="5" value="00000005"/>
          <field name="rgmanager.cluster_msg_header.src_nodeid" showname="Source node id: 1" size="4" pos="172" show="1" value="00000001"/>
          <field name="rgmanager.cluster_msg_header.dest_ctx" showname="Destination context: 0 (broadcast)" size="4" pos="176" show="0" value="00000000"/>
          <field name="rgmanager.cluster_msg_header.dest_nodeid" showname="Destination node id: 0" size="4" pos="180" show="0" value="00000000"/>
          <field name="rgmanager.cluster_msg_header.msg_contorol" showname="Message contorol: data (4)" size="1" pos="184" show="4" value="04"/>
          <field name="rgmanager.cluster_msg_header.msg_port" showname="Message port: 177" size="1" pos="185" show="177" value="b1"/>
          <field name="rgmanager.cluster_msg_header.pad" showname="Padding: 0x0000" size="2" pos="186" show="0x0000" value="0000"/>
          <field name="rgmanager.cluster_msg_header.reserved" showname="Reserved: 000000000000000000000000" size="12" pos="188" show="00:00:00:00:00:00:00:00:00:00:00:00" value="000000000000000000000000"/>
          <field name="rgmanager.generic_msg_hdr.magic" showname="Magic: version 0 (0x123abc00)" size="4" pos="200" show="0x123abc00" value="123abc00"/>
          <field name="rgmanager.generic_msg_hdr.length" showname="Length: 208" size="4" pos="204" show="208" value="000000d0"/>
          <field name="rgmanager.generic_msg_hdr.command" showname="Command: view formation message (0x00003000)" size="4" pos="208" show="0x00003000" value="00003000"/>
          <field name="rgmanager.generic_msg_hdr.vf_command" showname="View formation command holder: 0x00003001, VF command: join view, VF flags: Unknown" size="4" pos="212" show="0x00003001" value="00003001">
            <field name="rgmanager.vf_command" showname=".... .... .... .... 0011 0000 0000 0001 = VF command: join view (0x00003001)" size="4" pos="212" show="0x00003001" value="3001" unmaskedvalue="00003001"/>
            <field name="rgmanager.vf_flags" showname="0000 0000 0000 0000 .... .... .... .... = VF flags: Unknown (0x00000000)" size="4" pos="212" show="0x00000000" value="0" unmaskedvalue="00003001"/>
          </field>
          <field name="rgmanager.generic_msg_hdr.arg2" showname="Arguement 2: 0 (unused)" size="4" pos="216" show="0" value="00000000"/>
          <field name="rgmanager.generic_msg_hdr.arg3" showname="Arguement 3: 0 (unused)" size="4" pos="220" show="0" value="00000000"/>
          <field name="rgmanager.vf_msg_info" showname="View formation message" size="184" pos="224" show="" value="">
            <field name="rgmanager.vf_msg_info.vf_command" showname=".... .... .... .... 0000 0000 0000 0000 = Command (unused): Unknown (0x00000000)" size="4" pos="224" show="0x00000000" value="0" unmaskedvalue="00000000"/>
            <field name="rgmanager.vf_msg_info.vf_transaction" showname="Transaction: 0x00010002" size="4" pos="228" show="0x00010002" value="00010002"/>
            <field name="rgmanager.vf_msg_info.vf_keyid" showname="Key id: rg=&quot;service:web&quot;" size="64" pos="232" show="rg=\&quot;service:web\&quot;" value="72673d22736572766963653a77656222000000000000000000000000000000000000000000000000000000000000000000000000000000000000000000000000"/>
            <field name="rgmanager.vf_msg_info.vf_coordinator" showname="Coordinator: 1" size="4" pos="296" show="1" value="00000001"/>
            <field name="rgmanager.vf_msg_info.vf_datalen" showname="Data length: 96" size="4" pos="300" show="96" value="00000060"/>
            <field name="rgmanager.vf_msg_info.vf_view" showname="View: 0x0000000000000014" size="8" pos="304" show="0x0000000000000014" value="0000000000000014"/>
            <field name="rgmanager.vf_msg_info.vf_data" showname="Data: service:web" size="96" pos="312" show="service:web" value="736572766963653a77656200000000000000000000000000000000000000000000000000000000000000000000000000000000000000000000000000000000000000000000000000010000000200000070000000000000005f5fa34e00000000">
              <field name="rgmanager.rg_state.rs_name" showname="Name of resource group: service:web" size="64" pos="312" show="service:web" value="736572766963653a7765620000000000000000000000000000000000000000000000000000000000000000000000000000000000000000000000000000000000"/>
              <field name="rgmanager.rg_state.rs_flags" showname="Flags of resource group : 0" size="4" pos="376" show="0" value="00000000"/>
              <field name="rgmanager.rg_state.rs_magic" showname="Magic : 0x00000000" size="4" pos="380" show="0x00000000" value="00000000"/>
              <field name="rgmanager.rg_state.rs_owner" showname="Owner of resource group : 1" size="4" pos="384" show="1" value="01000000"/>
              <field name="rgmanager.rg_state.rs_last_owner" showname="The last owner of resource group : 2" size="4" pos="388" show="2" value="02000000"/>
              <field name="rgmanager.rg_state.rs_state" showname="The state of resource group: started (112)" size="4" pos="392" show="112" value="70000000"/>
              <field name="rgmanager.rg_state.rs_restarts" showname="The number of restarts: 0" size="4" pos="396" show="0" value="00000000"/>
              <field name="rgmanager.rg_state.rs_transition" showname="The last service transaction time: 1319329631" size="8" pos="400" show="1319329631" value="5f5fa34e00000000"/>
              <field name="" show="Sun Oct 23 09:27:11 2011" size="8" pos="400" value="5f5fa34e00000000"/>
            </field>
          </field>
        </proto>
      </proto>
    </field>
  </proto>
</packet>


<packet>
  <proto name="geninfo" pos="0" showname="General information" size="267">
    <field name="num" pos="0" show="3" showname="Number" value="3" size="267"/>
    <field name="len" pos="0" show="267" showname="Frame Length" value="10b" size="267"/>
    <field name="caplen" pos="0" show="267" showname="Captured Length" value="10b" size="267"/>
    <field name="timestamp" pos="0" show="Oct 23, 2011 18:27:06.556025000 JST" showname="Captured Time" value="1319362026.556025000" size="267"/>
  </proto>
  <proto name="frame" showname="Frame 3: 267 bytes on wire (2136 bits), 267 bytes captured (2136 bits)" size="267" pos="0">
    <field name="frame.time" showname="Arrival Time: Oct 23, 2011 18:27:06.556025000 JST" size="0" pos="0" show="Oct 23, 2011 18:27:06.556025000"/>
    <field name="frame.time_epoch" showname="Epoch Time: 1319362026.556025000 seconds" size="0" pos="0" show="1319362026.556025000"/>
    <field name="frame.time_delta" showname="Time delta from previous captured frame: 0.004708000 seconds" size="0" pos="0" show="0.004708000"/>
    <field name="frame.time_delta_displayed" showname="Time delta from previous displayed frame: 0.004708000 seconds" size="0" pos="0" show="0.004708000"/>
    <field name="frame.time_relative" showname="Time since reference or first frame: 0.947271000 seconds" size="0" pos="0" show="0.947271000"/>
    <field name="frame.number" showname="Frame Number: 3" size="0" pos="0" show="3"/>
    <field name="frame.len" showname="Frame Length: 267 bytes (2136 bits)" size="0" pos="0" show="267"/>
    <field name="frame.cap_len" showname="Capture Length: 267 bytes (2136 bits)" size="0" pos="0" show="267"/>
    <field name="frame.marked" showname="Frame is marked: False" size="0" pos="0" show="0"/>
    <field name="frame.ignored" showname="Frame is ignored: False" size="0" pos="0" show="0"/>
    <field name="frame.protocols" showname="Protocols in frame: eth:ip:udp:corosync_totemnet:corosync_totempg:openais_cman:rgmanager" size="0" pos="0" show="eth:ip:udp:corosync_totemnet:corosync_totempg:openais_cman:rgmanager"/>
  </proto>
  <proto name="eth" showname="Ethernet II, Src: 54:52:00:01:00:61 (54:52:00:01:00:61), Dst: IPv4mcast_40:30:50 (01:00:5e:40:30:50)" size="14" pos="0">
    <field name="eth.dst" showname="Destination: IPv4mcast_40:30:50 (01:00:5e:40:30:50)" size="6" pos="0" show="01:00:5e:40:30:50" value="01005e403050">
      <field name="eth.addr" showname="Address: IPv4mcast_40:30:50 (01:00:5e:40:30:50)" size="6" pos="0" show="01:00:5e:40:30:50" value="01005e403050"/>
      <field name="eth.ig" showname=".... ...1 .... .... .... .... = IG bit: Group address (multicast/broadcast)" size="3" pos="0" show="1" value="1" unmaskedvalue="01005e"/>
      <field name="eth.lg" showname=".... ..0. .... .... .... .... = LG bit: Globally unique address (factory default)" size="3" pos="0" show="0" value="0" unmaskedvalue="01005e"/>
    </field>
    <field name="eth.src" showname="Source: 54:52:00:01:00:61 (54:52:00:01:00:61)" size="6" pos="6" show="54:52:00:01:00:61" value="545200010061">
      <field name="eth.addr" showname="Address: 54:52:00:01:00:61 (54:52:00:01:00:61)" size="6" pos="6" show="54:52:00:01:00:61" value="545200010061"/>
      <field name="eth.ig" showname=".... ...0 .... .... .... .... = IG bit: Individual address (unicast)" size="3" pos="6" show="0" value="0" unmaskedvalue="545200"/>
      <field name="eth.lg" showname=".... ..0. .... .... .... .... = LG bit: Globally unique address (factory default)" size="3" pos="6" show="0" value="0" unmaskedvalue="545200"/>
    </field>
    <field name="eth.type" showname="Type: IP (0x0800)" size="2" pos="12" show="0x0800" value="0800"/>
  </proto>
  <proto name="ip" showname="Internet Protocol Version 4, Src: 192.168.151.61 (192.168.151.61), Dst: 239.192.48.80 (239.192.48.80)" size="20" pos="14">
    <field name="ip.version" showname="Version: 4" size="1" pos="14" show="4" value="45"/>
    <field name="ip.hdr_len" showname="Header length: 20 bytes" size="1" pos="14" show="20" value="45"/>
    <field name="ip.dsfield" showname="Differentiated Services Field: 0x00 (DSCP 0x00: Default; ECN: 0x00: Not-ECT (Not ECN-Capable Transport))" size="1" pos="15" show="0" value="00">
      <field name="ip.dsfield.dscp" showname="0000 00.. = Differentiated Services Codepoint: Default (0x00)" size="1" pos="15" show="0x00" value="0" unmaskedvalue="00"/>
      <field name="ip.dsfield.ecn" showname=".... ..00 = Explicit Congestion Notification: Not-ECT (Not ECN-Capable Transport) (0x00)" size="1" pos="15" show="0x00" value="0" unmaskedvalue="00"/>
    </field>
    <field name="ip.len" showname="Total Length: 253" size="2" pos="16" show="253" value="00fd"/>
    <field name="ip.id" showname="Identification: 0x0000 (0)" size="2" pos="18" show="0x0000" value="0000"/>
    <field name="ip.flags" showname="Flags: 0x02 (Don&apos;t Fragment)" size="1" pos="20" show="0x02" value="40">
      <field name="ip.flags.rb" showname="0... .... = Reserved bit: Not set" size="1" pos="20" show="0" value="40"/>
      <field name="ip.flags.df" showname=".1.. .... = Don&apos;t fragment: Set" size="1" pos="20" show="1" value="40"/>
      <field name="ip.flags.mf" showname="..0. .... = More fragments: Not set" size="1" pos="20" show="0" value="40"/>
    </field>
    <field name="ip.frag_offset" showname="Fragment offset: 0" size="2" pos="20" show="0" value="4000"/>
    <field name="ip.ttl" showname="Time to live: 1" size="1" pos="22" show="1" value="01"/>
    <field name="ip.proto" showname="Protocol: UDP (17)" size="1" pos="23" show="17" value="11"/>
    <field name="ip.checksum" showname="Header checksum: 0x00fa [correct]" size="2" pos="24" show="0x00fa" value="00fa">
      <field name="ip.checksum_good" showname="Good: True" size="2" pos="24" show="1" value="00fa"/>
      <field name="ip.checksum_bad" showname="Bad: False" size="2" pos="24" show="0" value="00fa"/>
    </field>
    <field name="ip.src" showname="Source: 192.168.151.61 (192.168.151.61)" size="4" pos="26" show="192.168.151.61" value="c0a8973d"/>
    <field name="ip.addr" showname="Source or Destination Address: 192.168.151.61 (192.168.151.61)" hide="yes" size="4" pos="26" show="192.168.151.61" value="c0a8973d"/>
    <field name="ip.src_host" showname="Source Host: 192.168.151.61" hide="yes" size="4" pos="26" show="192.168.151.61" value="c0a8973d"/>
    <field name="ip.host" showname="Source or Destination Host: 192.168.151.61" hide="yes" size="4" pos="26" show="192.168.151.61" value="c0a8973d"/>
    <field name="ip.dst" showname="Destination: 239.192.48.80 (239.192.48.80)" size="4" pos="30" show="239.192.48.80" value="efc03050"/>
    <field name="ip.addr" showname="Source or Destination Address: 239.192.48.80 (239.192.48.80)" hide="yes" size="4" pos="30" show="239.192.48.80" value="efc03050"/>
    <field name="ip.dst_host" showname="Destination Host: 239.192.48.80" hide="yes" size="4" pos="30" show="239.192.48.80" value="efc03050"/>
    <field name="ip.host" showname="Source or Destination Host: 239.192.48.80" hide="yes" size="4" pos="30" show="239.192.48.80" value="efc03050"/>
  </proto>
  <proto name="udp" showname="User Datagram Protocol, Src Port: hpoms-dps-lstn (5404), Dst Port: netsupport (5405)" size="8" pos="34">
    <field name="udp.srcport" showname="Source port: hpoms-dps-lstn (5404)" size="2" pos="34" show="5404" value="151c"/>
    <field name="udp.dstport" showname="Destination port: netsupport (5405)" size="2" pos="36" show="5405" value="151d"/>
    <field name="udp.port" showname="Source or Destination Port: 5404" hide="yes" size="2" pos="34" show="5404" value="151c"/>
    <field name="udp.port" showname="Source or Destination Port: 5405" hide="yes" size="2" pos="36" show="5405" value="151d"/>
    <field name="udp.length" showname="Length: 233" size="2" pos="38" show="233" value="00e9"/>
    <field name="udp.checksum_coverage" showname="Checksum coverage: 233" hide="yes" size="0" pos="38" show="233"/>
    <field name="udp.checksum" showname="Checksum: 0x5ca6 [validation disabled]" size="2" pos="40" show="0x5ca6" value="5ca6">
      <field name="udp.checksum_good" showname="Good Checksum: False" size="2" pos="40" show="0" value="5ca6"/>
      <field name="udp.checksum_bad" showname="Bad Checksum: False" size="2" pos="40" show="0" value="5ca6"/>
    </field>
  </proto>
  <proto name="corosync_totemnet" showname="Totemnet Layer of Corosync Cluster Engine" size="224" pos="0">
    <field name="corosync_totemnet.security_header_hash_digest" showname="Hash digest: a383a3b4b19594f59b61d88d4db0238be35b4816" size="20" pos="0" show="a3:83:a3:b4:b1:95:94:f5:9b:61:d8:8d:4d:b0:23:8b:e3:5b:48:16" value="a383a3b4b19594f59b61d88d4db0238be35b4816"/>
    <field name="corosync_totemnet.security_header_salt" showname="Salt: c2f485b4befa7e0f47aac7a8b8348f29" size="16" pos="20" show="c2:f4:85:b4:be:fa:7e:0f:47:aa:c7:a8:b8:34:8f:29" value="c2f485b4befa7e0f47aac7a8b8348f29"/>
    <field name="corosync_totemnet.security_crypto_type" showname="Cryptographic Type: SOBER (0)" size="1" pos="223" show="0" value="00"/>
    <field name="corosync_totemnet.security_crypto_key" showname="alpha" size="0" pos="0" show="" value=""/>
  </proto>
  <proto name="corosync_totemsrp" showname="Totem Single Ring Protocol implemented in Corosync Cluster Engine" size="188" pos="36">
    <field name="corosync_totemsrp.message_header.type" showname="Type: mcast (1)" size="1" pos="36" show="1" value="01"/>
    <field name="corosync_totemsrp.message_header.encapsulated" showname="Encapsulated: not encapsulated (2)" size="1" pos="37" show="2" value="02"/>
    <field name="corosync_totemsrp.message_header.endian_detector" showname="Endian detector: 0xff22" size="2" pos="38" show="0xff22" value="22ff"/>
    <field name="corosync_totemsrp.message_header.nodeid" showname="Node ID: 1" size="4" pos="40" show="1" value="01000000"/>
    <field name="corosync_totemsrp.mcast" showname="ring ordered multicast message" size="180" pos="44" show="" value="">
      <field name="corosync_totemsrp.mcast.system_from" showname="System from address" size="44" pos="44" show="" value="">
        <field name="corosync_totemsrp.ip_address" showname="Node IP address (interface: 0; node: 1)" size="22" pos="44" show="" value="">
          <field name="corosync_totemsrp.ip_address.nodeid" showname="Node ID: 1" size="4" pos="44" show="1" value="01000000"/>
          <field name="corosync_totemsrp.ip_address.family" showname="Address family: AF_INET (2)" size="2" pos="48" show="2" value="0200"/>
          <field name="corosync_totemsrp.ip_address.addr4" showname="Address: 192.168.151.61 (192.168.151.61)" size="4" pos="50" show="192.168.151.61" value="c0a8973d"/>
          <field name="corosync_totemsrp.ip_address.addr4_padding" showname="Address padding: 08000200c0a8973d08000400" size="12" pos="54" show="08:00:02:00:c0:a8:97:3d:08:00:04:00" value="08000200c0a8973d08000400"/>
        </field>
        <field name="corosync_totemsrp.ip_address" showname="Node IP address (interface: 1; node: 0)" size="22" pos="66" show="" value="">
          <field name="corosync_totemsrp.ip_address.nodeid" showname="Node ID: 0" size="4" pos="66" show="0" value="00000000"/>
          <field name="corosync_totemsrp.ip_address.family" showname="Address family: Unknown (0)" size="2" pos="70" show="0" value="0000"/>
          <field name="corosync_totemsrp.ip_address.addr" showname="Address: 00000000000000000000000000000000" size="16" pos="72" show="00:00:00:00:00:00:00:00:00:00:00:00:00:00:00:00" value="00000000000000000000000000000000"/>
        </field>
      </field>
      <field name="corosync_totemsrp.mcast.seq" showname="Multicast sequence number: 179" size="4" pos="88" show="179" value="b3000000"/>
      <field name="corosync_totemsrp.mcast.this_seqno" showname="This Sequence number: 103" size="4" pos="92" show="103" value="67000000"/>
      <field name="corosync_totemsrp.memb_ring_id" showname="Member ring id (node: 1)" size="30" pos="96" show="" value="">
        <field name="corosync_totemsrp.ip_address" showname="Node IP address (node: 1)" size="22" pos="96" show="" value="">
          <field name="corosync_totemsrp.ip_address.nodeid" showname="Node ID: 1" size="4" pos="96" show="1" value="01000000"/>
          <field name="corosync_totemsrp.ip_address.family" showname="Address family: AF_INET (2)" size="2" pos="100" show="2" value="0200"/>
          <field name="corosync_totemsrp.ip_address.addr4" showname="Address: 192.168.151.61 (192.168.151.61)" size="4" pos="102" show="192.168.151.61" value="c0a8973d"/>
          <field name="corosync_totemsrp.ip_address.addr4_padding" showname="Address padding: 08000200c0a8973d08000400" size="12" pos="106" show="08:00:02:00:c0:a8:97:3d:08:00:04:00" value="08000200c0a8973d08000400"/>
        </field>
        <field name="corosync_totemsrp.memb_ring_id.seq" showname="Squence in member ring id: 30000" size="8" pos="118" show="30000" value="3075000000000000"/>
      </field>
      <field name="corosync_totemsrp.mcast.node_id" showname="Node id(unused?): 0" size="4" pos="126" show="0" value="00000000"/>
      <field name="corosync_totemsrp.mcast.guarantee" showname="Guarantee: 0" size="4" pos="130" show="0" value="00000000"/>
    </field>
  </proto>
  <proto name="corosync_totempg" showname="Process Group Layer of Corosync Cluster Engine" size="90" pos="134">
    <field name="corosync_totempg.mcast_header" showname="Multicast packet header" size="4" pos="134" show="" value="">
      <field name="corosync_totempg.mcast_header.version" showname="Version: 0" size="2" pos="134" show="0" value="0000"/>
      <field name="corosync_totempg.mcast_header.type" showname="Type: 0" size="2" pos="136" show="0" value="0000"/>
    </field>
    <field name="corosync_totempg.fragmented" showname="Fragment flag: 0" size="1" pos="138" show="0" value="00"/>
    <field name="corosync_totempg.continuation" showname="Continuation flag: 0" size="1" pos="139" show="0" value="00"/>
    <field name="corosync_totempg.msg_count" showname="Count of messages: 1" size="2" pos="140" show="1" value="0100"/>
    <field name="corosync_totempg.msg_len" showname="Length of message: 80 (msg index: 0)" size="2" pos="142" show="80" value="5000"/>
    <field name="corosync_totempg.mcast_message" showname="Multicast packet message (msg index: 0)" size="80" pos="144" show="" value="">
      <field name="corosync_totempg.group_count" showname="Group count: 1" size="2" pos="144" show="1" value="0100"/>
      <field name="corosync_totempg.group_len" showname="Length of group name: 4 (group index: 0)" size="2" pos="146" show="4" value="0400"/>
      <field name="corosync_totempg.group_name" showname="Group name: CMAN (group index: 0)" size="4" pos="148" show="CMAN" value="434d414e"/>
      <proto name="openais_cman" showname="Cman running on OpenAIS" size="72" pos="152">
        <field name="openais_cman.tgtport" showname="Target port number: 177 (RGMANAGER)" size="1" pos="152" show="177" value="b1"/>
        <field name="openais_cman.srcport" showname="Source port number: 177" size="1" pos="153" show="177" value="b1"/>
        <field name="openais_cman.pad" showname="Padding: 62395" size="2" pos="154" show="62395" value="bbf3"/>
        <field name="openais_cman.flags" showname="Flags: 0" size="4" pos="156" show="0" value="00000000"/>
        <field name="openais_cman.srcid" showname="Source node id: 1" size="4" pos="160" show="1" value="01000000"/>
        <field name="openais_cman.tgtid" showname="Target node id: 0 (whole cluster)" size="4" pos="164" show="0" value="00000000"/>
        <proto name="rgmanager" showname="Resource group manager" size="56" pos="168">
          <field name="rgmanager.cluster_msg_header.src_ctx" showname="Source context: 5" size="4" pos="168" show="5" value="00000005"/>
          <field name="rgmanager.cluster_msg_header.src_nodeid" showname="Source node id: 1" size="4" pos="172" show="1" value="00000001"/>
          <field name="rgmanager.cluster_msg_header.dest_ctx" showname="Destination context: 0 (broadcast)" size="4" pos="176" show="0" value="00000000"/>
          <field name="rgmanager.cluster_msg_header.dest_nodeid" showname="Destination node id: 0" size="4" pos="180" show="0" value="00000000"/>
          <field name="rgmanager.cluster_msg_header.msg_contorol" showname="Message contorol: data (4)" size="1" pos="184" show="4" value="04"/>
          <field name="rgmanager.cluster_msg_header.msg_port" showname="Message port: 177" size="1" pos="185" show="177" value="b1"/>
          <field name="rgmanager.cluster_msg_header.pad" showname="Padding: 0x0000" size="2" pos="186" show="0x0000" value="0000"/>
          <field name="rgmanager.cluster_msg_header.reserved" showname="Reserved: 00000000b100000016000000" size="12" pos="188" show="00:00:00:00:b1:00:00:00:16:00:00:00" value="00000000b100000016000000"/>
          <field name="rgmanager.generic_msg_hdr.magic" showname="Magic: version 0 (0x123abc00)" size="4" pos="200" show="0x123abc00" value="123abc00"/>
          <field name="rgmanager.generic_msg_hdr.length" showname="Length: 24" size="4" pos="204" show="24" value="00000018"/>
          <field name="rgmanager.generic_msg_hdr.command" showname="Command: view formation message (0x00003000)" size="4" pos="208" show="0x00003000" value="00003000"/>
          <field name="rgmanager.generic_msg_hdr.vf_command" showname="View formation command holder: 0x00003005, VF command: view formed, VF flags: Unknown" size="4" pos="212" show="0x00003005" value="00003005">
            <field name="rgmanager.vf_command" showname=".... .... .... .... 0011 0000 0000 0101 = VF command: view formed (0x00003005)" size="4" pos="212" show="0x00003005" value="3005" unmaskedvalue="00003005"/>
            <field name="rgmanager.vf_flags" showname="0000 0000 0000 0000 .... .... .... .... = VF flags: Unknown (0x00000000)" size="4" pos="212" show="0x00000000" value="0" unmaskedvalue="00003005"/>
          </field>
          <field name="rgmanager.generic_msg_hdr.vf_trans" showname="View formed transaction: 0x00010002" size="4" pos="216" show="0x00010002" value="00010002"/>
          <field name="rgmanager.generic_msg_hdr.arg3" showname="Arguement 3: 0 (unused)" size="4" pos="220" show="0" value="00000000"/>
        </proto>
      </proto>
    </field>
  </proto>
</packet>


<packet>
  <proto name="geninfo" pos="0" showname="General information" size="451">
    <field name="num" pos="0" show="4" showname="Number" value="4" size="451"/>
    <field name="len" pos="0" show="451" showname="Frame Length" value="1c3" size="451"/>
    <field name="caplen" pos="0" show="451" showname="Captured Length" value="1c3" size="451"/>
    <field name="timestamp" pos="0" show="Oct 23, 2011 18:27:06.637466000 JST" showname="Captured Time" value="1319362026.637466000" size="451"/>
  </proto>
  <proto name="frame" showname="Frame 4: 451 bytes on wire (3608 bits), 451 bytes captured (3608 bits)" size="451" pos="0">
    <field name="frame.time" showname="Arrival Time: Oct 23, 2011 18:27:06.637466000 JST" size="0" pos="0" show="Oct 23, 2011 18:27:06.637466000"/>
    <field name="frame.time_epoch" showname="Epoch Time: 1319362026.637466000 seconds" size="0" pos="0" show="1319362026.637466000"/>
    <field name="frame.time_delta" showname="Time delta from previous captured frame: 0.081441000 seconds" size="0" pos="0" show="0.081441000"/>
    <field name="frame.time_delta_displayed" showname="Time delta from previous displayed frame: 0.081441000 seconds" size="0" pos="0" show="0.081441000"/>
    <field name="frame.time_relative" showname="Time since reference or first frame: 1.028712000 seconds" size="0" pos="0" show="1.028712000"/>
    <field name="frame.number" showname="Frame Number: 4" size="0" pos="0" show="4"/>
    <field name="frame.len" showname="Frame Length: 451 bytes (3608 bits)" size="0" pos="0" show="451"/>
    <field name="frame.cap_len" showname="Capture Length: 451 bytes (3608 bits)" size="0" pos="0" show="451"/>
    <field name="frame.marked" showname="Frame is marked: False" size="0" pos="0" show="0"/>
    <field name="frame.ignored" showname="Frame is ignored: False" size="0" pos="0" show="0"/>
    <field name="frame.protocols" showname="Protocols in frame: eth:ip:udp:corosync_totemnet:corosync_totempg:openais_cman:rgmanager" size="0" pos="0" show="eth:ip:udp:corosync_totemnet:corosync_totempg:openais_cman:rgmanager"/>
  </proto>
  <proto name="eth" showname="Ethernet II, Src: 54:52:00:01:00:61 (54:52:00:01:00:61), Dst: IPv4mcast_40:30:50 (01:00:5e:40:30:50)" size="14" pos="0">
    <field name="eth.dst" showname="Destination: IPv4mcast_40:30:50 (01:00:5e:40:30:50)" size="6" pos="0" show="01:00:5e:40:30:50" value="01005e403050">
      <field name="eth.addr" showname="Address: IPv4mcast_40:30:50 (01:00:5e:40:30:50)" size="6" pos="0" show="01:00:5e:40:30:50" value="01005e403050"/>
      <field name="eth.ig" showname=".... ...1 .... .... .... .... = IG bit: Group address (multicast/broadcast)" size="3" pos="0" show="1" value="1" unmaskedvalue="01005e"/>
      <field name="eth.lg" showname=".... ..0. .... .... .... .... = LG bit: Globally unique address (factory default)" size="3" pos="0" show="0" value="0" unmaskedvalue="01005e"/>
    </field>
    <field name="eth.src" showname="Source: 54:52:00:01:00:61 (54:52:00:01:00:61)" size="6" pos="6" show="54:52:00:01:00:61" value="545200010061">
      <field name="eth.addr" showname="Address: 54:52:00:01:00:61 (54:52:00:01:00:61)" size="6" pos="6" show="54:52:00:01:00:61" value="545200010061"/>
      <field name="eth.ig" showname=".... ...0 .... .... .... .... = IG bit: Individual address (unicast)" size="3" pos="6" show="0" value="0" unmaskedvalue="545200"/>
      <field name="eth.lg" showname=".... ..0. .... .... .... .... = LG bit: Globally unique address (factory default)" size="3" pos="6" show="0" value="0" unmaskedvalue="545200"/>
    </field>
    <field name="eth.type" showname="Type: IP (0x0800)" size="2" pos="12" show="0x0800" value="0800"/>
  </proto>
  <proto name="ip" showname="Internet Protocol Version 4, Src: 192.168.151.61 (192.168.151.61), Dst: 239.192.48.80 (239.192.48.80)" size="20" pos="14">
    <field name="ip.version" showname="Version: 4" size="1" pos="14" show="4" value="45"/>
    <field name="ip.hdr_len" showname="Header length: 20 bytes" size="1" pos="14" show="20" value="45"/>
    <field name="ip.dsfield" showname="Differentiated Services Field: 0x00 (DSCP 0x00: Default; ECN: 0x00: Not-ECT (Not ECN-Capable Transport))" size="1" pos="15" show="0" value="00">
      <field name="ip.dsfield.dscp" showname="0000 00.. = Differentiated Services Codepoint: Default (0x00)" size="1" pos="15" show="0x00" value="0" unmaskedvalue="00"/>
      <field name="ip.dsfield.ecn" showname=".... ..00 = Explicit Congestion Notification: Not-ECT (Not ECN-Capable Transport) (0x00)" size="1" pos="15" show="0x00" value="0" unmaskedvalue="00"/>
    </field>
    <field name="ip.len" showname="Total Length: 437" size="2" pos="16" show="437" value="01b5"/>
    <field name="ip.id" showname="Identification: 0x0000 (0)" size="2" pos="18" show="0x0000" value="0000"/>
    <field name="ip.flags" showname="Flags: 0x02 (Don&apos;t Fragment)" size="1" pos="20" show="0x02" value="40">
      <field name="ip.flags.rb" showname="0... .... = Reserved bit: Not set" size="1" pos="20" show="0" value="40"/>
      <field name="ip.flags.df" showname=".1.. .... = Don&apos;t fragment: Set" size="1" pos="20" show="1" value="40"/>
      <field name="ip.flags.mf" showname="..0. .... = More fragments: Not set" size="1" pos="20" show="0" value="40"/>
    </field>
    <field name="ip.frag_offset" showname="Fragment offset: 0" size="2" pos="20" show="0" value="4000"/>
    <field name="ip.ttl" showname="Time to live: 1" size="1" pos="22" show="1" value="01"/>
    <field name="ip.proto" showname="Protocol: UDP (17)" size="1" pos="23" show="17" value="11"/>
    <field name="ip.checksum" showname="Header checksum: 0x0042 [correct]" size="2" pos="24" show="0x0042" value="0042">
      <field name="ip.checksum_good" showname="Good: True" size="2" pos="24" show="1" value="0042"/>
      <field name="ip.checksum_bad" showname="Bad: False" size="2" pos="24" show="0" value="0042"/>
    </field>
    <field name="ip.src" showname="Source: 192.168.151.61 (192.168.151.61)" size="4" pos="26" show="192.168.151.61" value="c0a8973d"/>
    <field name="ip.addr" showname="Source or Destination Address: 192.168.151.61 (192.168.151.61)" hide="yes" size="4" pos="26" show="192.168.151.61" value="c0a8973d"/>
    <field name="ip.src_host" showname="Source Host: 192.168.151.61" hide="yes" size="4" pos="26" show="192.168.151.61" value="c0a8973d"/>
    <field name="ip.host" showname="Source or Destination Host: 192.168.151.61" hide="yes" size="4" pos="26" show="192.168.151.61" value="c0a8973d"/>
    <field name="ip.dst" showname="Destination: 239.192.48.80 (239.192.48.80)" size="4" pos="30" show="239.192.48.80" value="efc03050"/>
    <field name="ip.addr" showname="Source or Destination Address: 239.192.48.80 (239.192.48.80)" hide="yes" size="4" pos="30" show="239.192.48.80" value="efc03050"/>
    <field name="ip.dst_host" showname="Destination Host: 239.192.48.80" hide="yes" size="4" pos="30" show="239.192.48.80" value="efc03050"/>
    <field name="ip.host" showname="Source or Destination Host: 239.192.48.80" hide="yes" size="4" pos="30" show="239.192.48.80" value="efc03050"/>
  </proto>
  <proto name="udp" showname="User Datagram Protocol, Src Port: hpoms-dps-lstn (5404), Dst Port: netsupport (5405)" size="8" pos="34">
    <field name="udp.srcport" showname="Source port: hpoms-dps-lstn (5404)" size="2" pos="34" show="5404" value="151c"/>
    <field name="udp.dstport" showname="Destination port: netsupport (5405)" size="2" pos="36" show="5405" value="151d"/>
    <field name="udp.port" showname="Source or Destination Port: 5404" hide="yes" size="2" pos="34" show="5404" value="151c"/>
    <field name="udp.port" showname="Source or Destination Port: 5405" hide="yes" size="2" pos="36" show="5405" value="151d"/>
    <field name="udp.length" showname="Length: 417" size="2" pos="38" show="417" value="01a1"/>
    <field name="udp.checksum_coverage" showname="Checksum coverage: 417" hide="yes" size="0" pos="38" show="417"/>
    <field name="udp.checksum" showname="Checksum: 0x4ef1 [validation disabled]" size="2" pos="40" show="0x4ef1" value="4ef1">
      <field name="udp.checksum_good" showname="Good Checksum: False" size="2" pos="40" show="0" value="4ef1"/>
      <field name="udp.checksum_bad" showname="Bad Checksum: False" size="2" pos="40" show="0" value="4ef1"/>
    </field>
  </proto>
  <proto name="corosync_totemnet" showname="Totemnet Layer of Corosync Cluster Engine" size="408" pos="0">
    <field name="corosync_totemnet.security_header_hash_digest" showname="Hash digest: d77d67f628cf69c0d6b7c3b523dea2d6a040ba2b" size="20" pos="0" show="d7:7d:67:f6:28:cf:69:c0:d6:b7:c3:b5:23:de:a2:d6:a0:40:ba:2b" value="d77d67f628cf69c0d6b7c3b523dea2d6a040ba2b"/>
    <field name="corosync_totemnet.security_header_salt" showname="Salt: 8dcf726c49d48ba335154df9c427ff9c" size="16" pos="20" show="8d:cf:72:6c:49:d4:8b:a3:35:15:4d:f9:c4:27:ff:9c" value="8dcf726c49d48ba335154df9c427ff9c"/>
    <field name="corosync_totemnet.security_crypto_type" showname="Cryptographic Type: SOBER (0)" size="1" pos="407" show="0" value="00"/>
    <field name="corosync_totemnet.security_crypto_key" showname="alpha" size="0" pos="0" show="" value=""/>
  </proto>
  <proto name="corosync_totemsrp" showname="Totem Single Ring Protocol implemented in Corosync Cluster Engine" size="372" pos="36">
    <field name="corosync_totemsrp.message_header.type" showname="Type: mcast (1)" size="1" pos="36" show="1" value="01"/>
    <field name="corosync_totemsrp.message_header.encapsulated" showname="Encapsulated: not encapsulated (2)" size="1" pos="37" show="2" value="02"/>
    <field name="corosync_totemsrp.message_header.endian_detector" showname="Endian detector: 0xff22" size="2" pos="38" show="0xff22" value="22ff"/>
    <field name="corosync_totemsrp.message_header.nodeid" showname="Node ID: 1" size="4" pos="40" show="1" value="01000000"/>
    <field name="corosync_totemsrp.mcast" showname="ring ordered multicast message" size="364" pos="44" show="" value="">
      <field name="corosync_totemsrp.mcast.system_from" showname="System from address" size="44" pos="44" show="" value="">
        <field name="corosync_totemsrp.ip_address" showname="Node IP address (interface: 0; node: 1)" size="22" pos="44" show="" value="">
          <field name="corosync_totemsrp.ip_address.nodeid" showname="Node ID: 1" size="4" pos="44" show="1" value="01000000"/>
          <field name="corosync_totemsrp.ip_address.family" showname="Address family: AF_INET (2)" size="2" pos="48" show="2" value="0200"/>
          <field name="corosync_totemsrp.ip_address.addr4" showname="Address: 192.168.151.61 (192.168.151.61)" size="4" pos="50" show="192.168.151.61" value="c0a8973d"/>
          <field name="corosync_totemsrp.ip_address.addr4_padding" showname="Address padding: 08000200c0a8973d08000400" size="12" pos="54" show="08:00:02:00:c0:a8:97:3d:08:00:04:00" value="08000200c0a8973d08000400"/>
        </field>
        <field name="corosync_totemsrp.ip_address" showname="Node IP address (interface: 1; node: 0)" size="22" pos="66" show="" value="">
          <field name="corosync_totemsrp.ip_address.nodeid" showname="Node ID: 0" size="4" pos="66" show="0" value="00000000"/>
          <field name="corosync_totemsrp.ip_address.family" showname="Address family: Unknown (0)" size="2" pos="70" show="0" value="0000"/>
          <field name="corosync_totemsrp.ip_address.addr" showname="Address: 00000000000000000000000000000000" size="16" pos="72" show="00:00:00:00:00:00:00:00:00:00:00:00:00:00:00:00" value="00000000000000000000000000000000"/>
        </field>
      </field>
      <field name="corosync_totemsrp.mcast.seq" showname="Multicast sequence number: 180" size="4" pos="88" show="180" value="b4000000"/>
      <field name="corosync_totemsrp.mcast.this_seqno" showname="This Sequence number: 104" size="4" pos="92" show="104" value="68000000"/>
      <field name="corosync_totemsrp.memb_ring_id" showname="Member ring id (node: 1)" size="30" pos="96" show="" value="">
        <field name="corosync_totemsrp.ip_address" showname="Node IP address (node: 1)" size="22" pos="96" show="" value="">
          <field name="corosync_totemsrp.ip_address.nodeid" showname="Node ID: 1" size="4" pos="96" show="1" value="01000000"/>
          <field name="corosync_totemsrp.ip_address.family" showname="Address family: AF_INET (2)" size="2" pos="100" show="2" value="0200"/>
          <field name="corosync_totemsrp.ip_address.addr4" showname="Address: 192.168.151.61 (192.168.151.61)" size="4" pos="102" show="192.168.151.61" value="c0a8973d"/>
          <field name="corosync_totemsrp.ip_address.addr4_padding" showname="Address padding: 08000200c0a8973d08000400" size="12" pos="106" show="08:00:02:00:c0:a8:97:3d:08:00:04:00" value="08000200c0a8973d08000400"/>
        </field>
        <field name="corosync_totemsrp.memb_ring_id.seq" showname="Squence in member ring id: 30000" size="8" pos="118" show="30000" value="3075000000000000"/>
      </field>
      <field name="corosync_totemsrp.mcast.node_id" showname="Node id(unused?): 0" size="4" pos="126" show="0" value="00000000"/>
      <field name="corosync_totemsrp.mcast.guarantee" showname="Guarantee: 0" size="4" pos="130" show="0" value="00000000"/>
    </field>
  </proto>
  <proto name="corosync_totempg" showname="Process Group Layer of Corosync Cluster Engine" size="274" pos="134">
    <field name="corosync_totempg.mcast_header" showname="Multicast packet header" size="4" pos="134" show="" value="">
      <field name="corosync_totempg.mcast_header.version" showname="Version: 0" size="2" pos="134" show="0" value="0000"/>
      <field name="corosync_totempg.mcast_header.type" showname="Type: 9757" size="2" pos="136" show="9757" value="1d26"/>
    </field>
    <field name="corosync_totempg.fragmented" showname="Fragment flag: 0" size="1" pos="138" show="0" value="00"/>
    <field name="corosync_totempg.continuation" showname="Continuation flag: 0" size="1" pos="139" show="0" value="00"/>
    <field name="corosync_totempg.msg_count" showname="Count of messages: 1" size="2" pos="140" show="1" value="0100"/>
    <field name="corosync_totempg.msg_len" showname="Length of message: 264 (msg index: 0)" size="2" pos="142" show="264" value="0801"/>
    <field name="corosync_totempg.mcast_message" showname="Multicast packet message (msg index: 0)" size="264" pos="144" show="" value="">
      <field name="corosync_totempg.group_count" showname="Group count: 1" size="2" pos="144" show="1" value="0100"/>
      <field name="corosync_totempg.group_len" showname="Length of group name: 4 (group index: 0)" size="2" pos="146" show="4" value="0400"/>
      <field name="corosync_totempg.group_name" showname="Group name: CMAN (group index: 0)" size="4" pos="148" show="CMAN" value="434d414e"/>
      <proto name="openais_cman" showname="Cman running on OpenAIS" size="256" pos="152">
        <field name="openais_cman.tgtport" showname="Target port number: 177 (RGMANAGER)" size="1" pos="152" show="177" value="b1"/>
        <field name="openais_cman.srcport" showname="Source port number: 177" size="1" pos="153" show="177" value="b1"/>
        <field name="openais_cman.pad" showname="Padding: 62395" size="2" pos="154" show="62395" value="bbf3"/>
        <field name="openais_cman.flags" showname="Flags: 0" size="4" pos="156" show="0" value="00000000"/>
        <field name="openais_cman.srcid" showname="Source node id: 1" size="4" pos="160" show="1" value="01000000"/>
        <field name="openais_cman.tgtid" showname="Target node id: 0 (whole cluster)" size="4" pos="164" show="0" value="00000000"/>
        <proto name="rgmanager" showname="Resource group manager" size="240" pos="168">
          <field name="rgmanager.cluster_msg_header.src_ctx" showname="Source context: 6" size="4" pos="168" show="6" value="00000006"/>
          <field name="rgmanager.cluster_msg_header.src_nodeid" showname="Source node id: 1" size="4" pos="172" show="1" value="00000001"/>
          <field name="rgmanager.cluster_msg_header.dest_ctx" showname="Destination context: 0 (broadcast)" size="4" pos="176" show="0" value="00000000"/>
          <field name="rgmanager.cluster_msg_header.dest_nodeid" showname="Destination node id: 0" size="4" pos="180" show="0" value="00000000"/>
          <field name="rgmanager.cluster_msg_header.msg_contorol" showname="Message contorol: data (4)" size="1" pos="184" show="4" value="04"/>
          <field name="rgmanager.cluster_msg_header.msg_port" showname="Message port: 177" size="1" pos="185" show="177" value="b1"/>
          <field name="rgmanager.cluster_msg_header.pad" showname="Padding: 0xbc00" size="2" pos="186" show="0xbc00" value="bc00"/>
          <field name="rgmanager.cluster_msg_header.reserved" showname="Reserved: 000000180000300000003005" size="12" pos="188" show="00:00:00:18:00:00:30:00:00:00:30:05" value="000000180000300000003005"/>
          <field name="rgmanager.generic_msg_hdr.magic" showname="Magic: version 0 (0x123abc00)" size="4" pos="200" show="0x123abc00" value="123abc00"/>
          <field name="rgmanager.generic_msg_hdr.length" showname="Length: 208" size="4" pos="204" show="208" value="000000d0"/>
          <field name="rgmanager.generic_msg_hdr.command" showname="Command: view formation message (0x00003000)" size="4" pos="208" show="0x00003000" value="00003000"/>
          <field name="rgmanager.generic_msg_hdr.vf_command" showname="View formation command holder: 0x00003001, VF command: join view, VF flags: Unknown" size="4" pos="212" show="0x00003001" value="00003001">
            <field name="rgmanager.vf_command" showname=".... .... .... .... 0011 0000 0000 0001 = VF command: join view (0x00003001)" size="4" pos="212" show="0x00003001" value="3001" unmaskedvalue="00003001"/>
            <field name="rgmanager.vf_flags" showname="0000 0000 0000 0000 .... .... .... .... = VF flags: Unknown (0x00000000)" size="4" pos="212" show="0x00000000" value="0" unmaskedvalue="00003001"/>
          </field>
          <field name="rgmanager.generic_msg_hdr.arg2" showname="Arguement 2: 0 (unused)" size="4" pos="216" show="0" value="00000000"/>
          <field name="rgmanager.generic_msg_hdr.arg3" showname="Arguement 3: 0 (unused)" size="4" pos="220" show="0" value="00000000"/>
          <field name="rgmanager.vf_msg_info" showname="View formation message" size="184" pos="224" show="" value="">
            <field name="rgmanager.vf_msg_info.vf_command" showname=".... .... .... .... 0000 0000 0000 0000 = Command (unused): Unknown (0x00000000)" size="4" pos="224" show="0x00000000" value="0" unmaskedvalue="00000000"/>
            <field name="rgmanager.vf_msg_info.vf_transaction" showname="Transaction: 0x00010003" size="4" pos="228" show="0x00010003" value="00010003"/>
            <field name="rgmanager.vf_msg_info.vf_keyid" showname="Key id: rg=&quot;service:web&quot;" size="64" pos="232" show="rg=\&quot;service:web\&quot;" value="72673d22736572766963653a77656222000000000000000000000000000000000000000000000000000000000000000000000000000000000000000000000000"/>
            <field name="rgmanager.vf_msg_info.vf_coordinator" showname="Coordinator: 1" size="4" pos="296" show="1" value="00000001"/>
            <field name="rgmanager.vf_msg_info.vf_datalen" showname="Data length: 96" size="4" pos="300" show="96" value="00000060"/>
            <field name="rgmanager.vf_msg_info.vf_view" showname="View: 0x0000000000000015" size="8" pos="304" show="0x0000000000000015" value="0000000000000015"/>
            <field name="rgmanager.vf_msg_info.vf_data" showname="Data: service:web" size="96" pos="312" show="service:web" value="736572766963653a7765620000000000000000000000000000000000000000000000000000000000000000000000000000000000000000000000000000000000000000000000000001000000020000007500000000000000605fa34e00000000">
              <field name="rgmanager.rg_state.rs_name" showname="Name of resource group: service:web" size="64" pos="312" show="service:web" value="736572766963653a7765620000000000000000000000000000000000000000000000000000000000000000000000000000000000000000000000000000000000"/>
              <field name="rgmanager.rg_state.rs_flags" showname="Flags of resource group : 0" size="4" pos="376" show="0" value="00000000"/>
              <field name="rgmanager.rg_state.rs_magic" showname="Magic : 0x00000000" size="4" pos="380" show="0x00000000" value="00000000"/>
              <field name="rgmanager.rg_state.rs_owner" showname="Owner of resource group : 1" size="4" pos="384" show="1" value="01000000"/>
              <field name="rgmanager.rg_state.rs_last_owner" showname="The last owner of resource group : 2" size="4" pos="388" show="2" value="02000000"/>
              <field name="rgmanager.rg_state.rs_state" showname="The state of resource group: error (117)" size="4" pos="392" show="117" value="75000000"/>
              <field name="rgmanager.rg_state.rs_restarts" showname="The number of restarts: 0" size="4" pos="396" show="0" value="00000000"/>
              <field name="rgmanager.rg_state.rs_transition" showname="The last service transaction time: 1319329632" size="8" pos="400" show="1319329632" value="605fa34e00000000"/>
              <field name="" show="Sun Oct 23 09:27:12 2011" size="8" pos="400" value="605fa34e00000000"/>
            </field>
          </field>
        </proto>
      </proto>
    </field>
  </proto>
</packet>


<packet>
  <proto name="geninfo" pos="0" showname="General information" size="267">
    <field name="num" pos="0" show="5" showname="Number" value="5" size="267"/>
    <field name="len" pos="0" show="267" showname="Frame Length" value="10b" size="267"/>
    <field name="caplen" pos="0" show="267" showname="Captured Length" value="10b" size="267"/>
    <field name="timestamp" pos="0" show="Oct 23, 2011 18:27:06.641730000 JST" showname="Captured Time" value="1319362026.641730000" size="267"/>
  </proto>
  <proto name="frame" showname="Frame 5: 267 bytes on wire (2136 bits), 267 bytes captured (2136 bits)" size="267" pos="0">
    <field name="frame.time" showname="Arrival Time: Oct 23, 2011 18:27:06.641730000 JST" size="0" pos="0" show="Oct 23, 2011 18:27:06.641730000"/>
    <field name="frame.time_epoch" showname="Epoch Time: 1319362026.641730000 seconds" size="0" pos="0" show="1319362026.641730000"/>
    <field name="frame.time_delta" showname="Time delta from previous captured frame: 0.004264000 seconds" size="0" pos="0" show="0.004264000"/>
    <field name="frame.time_delta_displayed" showname="Time delta from previous displayed frame: 0.004264000 seconds" size="0" pos="0" show="0.004264000"/>
    <field name="frame.time_relative" showname="Time since reference or first frame: 1.032976000 seconds" size="0" pos="0" show="1.032976000"/>
    <field name="frame.number" showname="Frame Number: 5" size="0" pos="0" show="5"/>
    <field name="frame.len" showname="Frame Length: 267 bytes (2136 bits)" size="0" pos="0" show="267"/>
    <field name="frame.cap_len" showname="Capture Length: 267 bytes (2136 bits)" size="0" pos="0" show="267"/>
    <field name="frame.marked" showname="Frame is marked: False" size="0" pos="0" show="0"/>
    <field name="frame.ignored" showname="Frame is ignored: False" size="0" pos="0" show="0"/>
    <field name="frame.protocols" showname="Protocols in frame: eth:ip:udp:corosync_totemnet:corosync_totempg:openais_cman:rgmanager" size="0" pos="0" show="eth:ip:udp:corosync_totemnet:corosync_totempg:openais_cman:rgmanager"/>
  </proto>
  <proto name="eth" showname="Ethernet II, Src: 54:52:00:01:00:61 (54:52:00:01:00:61), Dst: IPv4mcast_40:30:50 (01:00:5e:40:30:50)" size="14" pos="0">
    <field name="eth.dst" showname="Destination: IPv4mcast_40:30:50 (01:00:5e:40:30:50)" size="6" pos="0" show="01:00:5e:40:30:50" value="01005e403050">
      <field name="eth.addr" showname="Address: IPv4mcast_40:30:50 (01:00:5e:40:30:50)" size="6" pos="0" show="01:00:5e:40:30:50" value="01005e403050"/>
      <field name="eth.ig" showname=".... ...1 .... .... .... .... = IG bit: Group address (multicast/broadcast)" size="3" pos="0" show="1" value="1" unmaskedvalue="01005e"/>
      <field name="eth.lg" showname=".... ..0. .... .... .... .... = LG bit: Globally unique address (factory default)" size="3" pos="0" show="0" value="0" unmaskedvalue="01005e"/>
    </field>
    <field name="eth.src" showname="Source: 54:52:00:01:00:61 (54:52:00:01:00:61)" size="6" pos="6" show="54:52:00:01:00:61" value="545200010061">
      <field name="eth.addr" showname="Address: 54:52:00:01:00:61 (54:52:00:01:00:61)" size="6" pos="6" show="54:52:00:01:00:61" value="545200010061"/>
      <field name="eth.ig" showname=".... ...0 .... .... .... .... = IG bit: Individual address (unicast)" size="3" pos="6" show="0" value="0" unmaskedvalue="545200"/>
      <field name="eth.lg" showname=".... ..0. .... .... .... .... = LG bit: Globally unique address (factory default)" size="3" pos="6" show="0" value="0" unmaskedvalue="545200"/>
    </field>
    <field name="eth.type" showname="Type: IP (0x0800)" size="2" pos="12" show="0x0800" value="0800"/>
  </proto>
  <proto name="ip" showname="Internet Protocol Version 4, Src: 192.168.151.61 (192.168.151.61), Dst: 239.192.48.80 (239.192.48.80)" size="20" pos="14">
    <field name="ip.version" showname="Version: 4" size="1" pos="14" show="4" value="45"/>
    <field name="ip.hdr_len" showname="Header length: 20 bytes" size="1" pos="14" show="20" value="45"/>
    <field name="ip.dsfield" showname="Differentiated Services Field: 0x00 (DSCP 0x00: Default; ECN: 0x00: Not-ECT (Not ECN-Capable Transport))" size="1" pos="15" show="0" value="00">
      <field name="ip.dsfield.dscp" showname="0000 00.. = Differentiated Services Codepoint: Default (0x00)" size="1" pos="15" show="0x00" value="0" unmaskedvalue="00"/>
      <field name="ip.dsfield.ecn" showname=".... ..00 = Explicit Congestion Notification: Not-ECT (Not ECN-Capable Transport) (0x00)" size="1" pos="15" show="0x00" value="0" unmaskedvalue="00"/>
    </field>
    <field name="ip.len" showname="Total Length: 253" size="2" pos="16" show="253" value="00fd"/>
    <field name="ip.id" showname="Identification: 0x0000 (0)" size="2" pos="18" show="0x0000" value="0000"/>
    <field name="ip.flags" showname="Flags: 0x02 (Don&apos;t Fragment)" size="1" pos="20" show="0x02" value="40">
      <field name="ip.flags.rb" showname="0... .... = Reserved bit: Not set" size="1" pos="20" show="0" value="40"/>
      <field name="ip.flags.df" showname=".1.. .... = Don&apos;t fragment: Set" size="1" pos="20" show="1" value="40"/>
      <field name="ip.flags.mf" showname="..0. .... = More fragments: Not set" size="1" pos="20" show="0" value="40"/>
    </field>
    <field name="ip.frag_offset" showname="Fragment offset: 0" size="2" pos="20" show="0" value="4000"/>
    <field name="ip.ttl" showname="Time to live: 1" size="1" pos="22" show="1" value="01"/>
    <field name="ip.proto" showname="Protocol: UDP (17)" size="1" pos="23" show="17" value="11"/>
    <field name="ip.checksum" showname="Header checksum: 0x00fa [correct]" size="2" pos="24" show="0x00fa" value="00fa">
      <field name="ip.checksum_good" showname="Good: True" size="2" pos="24" show="1" value="00fa"/>
      <field name="ip.checksum_bad" showname="Bad: False" size="2" pos="24" show="0" value="00fa"/>
    </field>
    <field name="ip.src" showname="Source: 192.168.151.61 (192.168.151.61)" size="4" pos="26" show="192.168.151.61" value="c0a8973d"/>
    <field name="ip.addr" showname="Source or Destination Address: 192.168.151.61 (192.168.151.61)" hide="yes" size="4" pos="26" show="192.168.151.61" value="c0a8973d"/>
    <field name="ip.src_host" showname="Source Host: 192.168.151.61" hide="yes" size="4" pos="26" show="192.168.151.61" value="c0a8973d"/>
    <field name="ip.host" showname="Source or Destination Host: 192.168.151.61" hide="yes" size="4" pos="26" show="192.168.151.61" value="c0a8973d"/>
    <field name="ip.dst" showname="Destination: 239.192.48.80 (239.192.48.80)" size="4" pos="30" show="239.192.48.80" value="efc03050"/>
    <field name="ip.addr" showname="Source or Destination Address: 239.192.48.80 (239.192.48.80)" hide="yes" size="4" pos="30" show="239.192.48.80" value="efc03050"/>
    <field name="ip.dst_host" showname="Destination Host: 239.192.48.80" hide="yes" size="4" pos="30" show="239.192.48.80" value="efc03050"/>
    <field name="ip.host" showname="Source or Destination Host: 239.192.48.80" hide="yes" size="4" pos="30" show="239.192.48.80" value="efc03050"/>
  </proto>
  <proto name="udp" showname="User Datagram Protocol, Src Port: hpoms-dps-lstn (5404), Dst Port: netsupport (5405)" size="8" pos="34">
    <field name="udp.srcport" showname="Source port: hpoms-dps-lstn (5404)" size="2" pos="34" show="5404" value="151c"/>
    <field name="udp.dstport" showname="Destination port: netsupport (5405)" size="2" pos="36" show="5405" value="151d"/>
    <field name="udp.port" showname="Source or Destination Port: 5404" hide="yes" size="2" pos="34" show="5404" value="151c"/>
    <field name="udp.port" showname="Source or Destination Port: 5405" hide="yes" size="2" pos="36" show="5405" value="151d"/>
    <field name="udp.length" showname="Length: 233" size="2" pos="38" show="233" value="00e9"/>
    <field name="udp.checksum_coverage" showname="Checksum coverage: 233" hide="yes" size="0" pos="38" show="233"/>
    <field name="udp.checksum" showname="Checksum: 0x05be [validation disabled]" size="2" pos="40" show="0x05be" value="05be">
      <field name="udp.checksum_good" showname="Good Checksum: False" size="2" pos="40" show="0" value="05be"/>
      <field name="udp.checksum_bad" showname="Bad Checksum: False" size="2" pos="40" show="0" value="05be"/>
    </field>
  </proto>
  <proto name="corosync_totemnet" showname="Totemnet Layer of Corosync Cluster Engine" size="224" pos="0">
    <field name="corosync_totemnet.security_header_hash_digest" showname="Hash digest: 0e8667faa12274bc66e6afe804f0c33b70567508" size="20" pos="0" show="0e:86:67:fa:a1:22:74:bc:66:e6:af:e8:04:f0:c3:3b:70:56:75:08" value="0e8667faa12274bc66e6afe804f0c33b70567508"/>
    <field name="corosync_totemnet.security_header_salt" showname="Salt: f6506f24ba50a7cf825f50b838539c13" size="16" pos="20" show="f6:50:6f:24:ba:50:a7:cf:82:5f:50:b8:38:53:9c:13" value="f6506f24ba50a7cf825f50b838539c13"/>
    <field name="corosync_totemnet.security_crypto_type" showname="Cryptographic Type: SOBER (0)" size="1" pos="223" show="0" value="00"/>
    <field name="corosync_totemnet.security_crypto_key" showname="alpha" size="0" pos="0" show="" value=""/>
  </proto>
  <proto name="corosync_totemsrp" showname="Totem Single Ring Protocol implemented in Corosync Cluster Engine" size="188" pos="36">
    <field name="corosync_totemsrp.message_header.type" showname="Type: mcast (1)" size="1" pos="36" show="1" value="01"/>
    <field name="corosync_totemsrp.message_header.encapsulated" showname="Encapsulated: not encapsulated (2)" size="1" pos="37" show="2" value="02"/>
    <field name="corosync_totemsrp.message_header.endian_detector" showname="Endian detector: 0xff22" size="2" pos="38" show="0xff22" value="22ff"/>
    <field name="corosync_totemsrp.message_header.nodeid" showname="Node ID: 1" size="4" pos="40" show="1" value="01000000"/>
    <field name="corosync_totemsrp.mcast" showname="ring ordered multicast message" size="180" pos="44" show="" value="">
      <field name="corosync_totemsrp.mcast.system_from" showname="System from address" size="44" pos="44" show="" value="">
        <field name="corosync_totemsrp.ip_address" showname="Node IP address (interface: 0; node: 1)" size="22" pos="44" show="" value="">
          <field name="corosync_totemsrp.ip_address.nodeid" showname="Node ID: 1" size="4" pos="44" show="1" value="01000000"/>
          <field name="corosync_totemsrp.ip_address.family" showname="Address family: AF_INET (2)" size="2" pos="48" show="2" value="0200"/>
          <field name="corosync_totemsrp.ip_address.addr4" showname="Address: 192.168.151.61 (192.168.151.61)" size="4" pos="50" show="192.168.151.61" value="c0a8973d"/>
          <field name="corosync_totemsrp.ip_address.addr4_padding" showname="Address padding: 08000200c0a8973d08000400" size="12" pos="54" show="08:00:02:00:c0:a8:97:3d:08:00:04:00" value="08000200c0a8973d08000400"/>
        </field>
        <field name="corosync_totemsrp.ip_address" showname="Node IP address (interface: 1; node: 0)" size="22" pos="66" show="" value="">
          <field name="corosync_totemsrp.ip_address.nodeid" showname="Node ID: 0" size="4" pos="66" show="0" value="00000000"/>
          <field name="corosync_totemsrp.ip_address.family" showname="Address family: Unknown (0)" size="2" pos="70" show="0" value="0000"/>
          <field name="corosync_totemsrp.ip_address.addr" showname="Address: 00000000000000000000000000000000" size="16" pos="72" show="00:00:00:00:00:00:00:00:00:00:00:00:00:00:00:00" value="00000000000000000000000000000000"/>
        </field>
      </field>
      <field name="corosync_totemsrp.mcast.seq" showname="Multicast sequence number: 181" size="4" pos="88" show="181" value="b5000000"/>
      <field name="corosync_totemsrp.mcast.this_seqno" showname="This Sequence number: 105" size="4" pos="92" show="105" value="69000000"/>
      <field name="corosync_totemsrp.memb_ring_id" showname="Member ring id (node: 1)" size="30" pos="96" show="" value="">
        <field name="corosync_totemsrp.ip_address" showname="Node IP address (node: 1)" size="22" pos="96" show="" value="">
          <field name="corosync_totemsrp.ip_address.nodeid" showname="Node ID: 1" size="4" pos="96" show="1" value="01000000"/>
          <field name="corosync_totemsrp.ip_address.family" showname="Address family: AF_INET (2)" size="2" pos="100" show="2" value="0200"/>
          <field name="corosync_totemsrp.ip_address.addr4" showname="Address: 192.168.151.61 (192.168.151.61)" size="4" pos="102" show="192.168.151.61" value="c0a8973d"/>
          <field name="corosync_totemsrp.ip_address.addr4_padding" showname="Address padding: 08000200c0a8973d08000400" size="12" pos="106" show="08:00:02:00:c0:a8:97:3d:08:00:04:00" value="08000200c0a8973d08000400"/>
        </field>
        <field name="corosync_totemsrp.memb_ring_id.seq" showname="Squence in member ring id: 30000" size="8" pos="118" show="30000" value="3075000000000000"/>
      </field>
      <field name="corosync_totemsrp.mcast.node_id" showname="Node id(unused?): 0" size="4" pos="126" show="0" value="00000000"/>
      <field name="corosync_totemsrp.mcast.guarantee" showname="Guarantee: 0" size="4" pos="130" show="0" value="00000000"/>
    </field>
  </proto>
  <proto name="corosync_totempg" showname="Process Group Layer of Corosync Cluster Engine" size="90" pos="134">
    <field name="corosync_totempg.mcast_header" showname="Multicast packet header" size="4" pos="134" show="" value="">
      <field name="corosync_totempg.mcast_header.version" showname="Version: 0" size="2" pos="134" show="0" value="0000"/>
      <field name="corosync_totempg.mcast_header.type" showname="Type: 444" size="2" pos="136" show="444" value="bc01"/>
    </field>
    <field name="corosync_totempg.fragmented" showname="Fragment flag: 0" size="1" pos="138" show="0" value="00"/>
    <field name="corosync_totempg.continuation" showname="Continuation flag: 0" size="1" pos="139" show="0" value="00"/>
    <field name="corosync_totempg.msg_count" showname="Count of messages: 1" size="2" pos="140" show="1" value="0100"/>
    <field name="corosync_totempg.msg_len" showname="Length of message: 80 (msg index: 0)" size="2" pos="142" show="80" value="5000"/>
    <field name="corosync_totempg.mcast_message" showname="Multicast packet message (msg index: 0)" size="80" pos="144" show="" value="">
      <field name="corosync_totempg.group_count" showname="Group count: 1" size="2" pos="144" show="1" value="0100"/>
      <field name="corosync_totempg.group_len" showname="Length of group name: 4 (group index: 0)" size="2" pos="146" show="4" value="0400"/>
      <field name="corosync_totempg.group_name" showname="Group name: CMAN (group index: 0)" size="4" pos="148" show="CMAN" value="434d414e"/>
      <proto name="openais_cman" showname="Cman running on OpenAIS" size="72" pos="152">
        <field name="openais_cman.tgtport" showname="Target port number: 177 (RGMANAGER)" size="1" pos="152" show="177" value="b1"/>
        <field name="openais_cman.srcport" showname="Source port number: 177" size="1" pos="153" show="177" value="b1"/>
        <field name="openais_cman.pad" showname="Padding: 62395" size="2" pos="154" show="62395" value="bbf3"/>
        <field name="openais_cman.flags" showname="Flags: 0" size="4" pos="156" show="0" value="00000000"/>
        <field name="openais_cman.srcid" showname="Source node id: 1" size="4" pos="160" show="1" value="01000000"/>
        <field name="openais_cman.tgtid" showname="Target node id: 0 (whole cluster)" size="4" pos="164" show="0" value="00000000"/>
        <proto name="rgmanager" showname="Resource group manager" size="56" pos="168">
          <field name="rgmanager.cluster_msg_header.src_ctx" showname="Source context: 2" size="4" pos="168" show="2" value="00000002"/>
          <field name="rgmanager.cluster_msg_header.src_nodeid" showname="Source node id: 1" size="4" pos="172" show="1" value="00000001"/>
          <field name="rgmanager.cluster_msg_header.dest_ctx" showname="Destination context: 0 (broadcast)" size="4" pos="176" show="0" value="00000000"/>
          <field name="rgmanager.cluster_msg_header.dest_nodeid" showname="Destination node id: 0" size="4" pos="180" show="0" value="00000000"/>
          <field name="rgmanager.cluster_msg_header.msg_contorol" showname="Message contorol: data (4)" size="1" pos="184" show="4" value="04"/>
          <field name="rgmanager.cluster_msg_header.msg_port" showname="Message port: 177" size="1" pos="185" show="177" value="b1"/>
          <field name="rgmanager.cluster_msg_header.pad" showname="Padding: 0x8600" size="2" pos="186" show="0x8600" value="8600"/>
          <field name="rgmanager.cluster_msg_header.reserved" showname="Reserved: 000000007011000ce37f0000" size="12" pos="188" show="00:00:00:00:70:11:00:0c:e3:7f:00:00" value="000000007011000ce37f0000"/>
          <field name="rgmanager.generic_msg_hdr.magic" showname="Magic: version 0 (0x123abc00)" size="4" pos="200" show="0x123abc00" value="123abc00"/>
          <field name="rgmanager.generic_msg_hdr.length" showname="Length: 24" size="4" pos="204" show="24" value="00000018"/>
          <field name="rgmanager.generic_msg_hdr.command" showname="Command: view formation message (0x00003000)" size="4" pos="208" show="0x00003000" value="00003000"/>
          <field name="rgmanager.generic_msg_hdr.vf_command" showname="View formation command holder: 0x00013002, VF command: vote, VF flags: affirm" size="4" pos="212" show="0x00013002" value="00013002">
            <field name="rgmanager.vf_command" showname=".... .... .... .... 0011 0000 0000 0010 = VF command: vote (0x00003002)" size="4" pos="212" show="0x00003002" value="3002" unmaskedvalue="00013002"/>
            <field name="rgmanager.vf_flags" showname="0000 0000 0000 0001 .... .... .... .... = VF flags: affirm (0x00000001)" size="4" pos="212" show="0x00000001" value="1" unmaskedvalue="00013002"/>
          </field>
          <field name="rgmanager.generic_msg_hdr.vf_trans" showname="View formed transaction: 0x00010003" size="4" pos="216" show="0x00010003" value="00010003"/>
          <field name="rgmanager.generic_msg_hdr.arg3" showname="Arguement 3: 0 (unused)" size="4" pos="220" show="0" value="00000000"/>
        </proto>
      </proto>
    </field>
  </proto>
</packet>


<packet>
  <proto name="geninfo" pos="0" showname="General information" size="267">
    <field name="num" pos="0" show="6" showname="Number" value="6" size="267"/>
    <field name="len" pos="0" show="267" showname="Frame Length" value="10b" size="267"/>
    <field name="caplen" pos="0" show="267" showname="Captured Length" value="10b" size="267"/>
    <field name="timestamp" pos="0" show="Oct 23, 2011 18:27:06.644555000 JST" showname="Captured Time" value="1319362026.644555000" size="267"/>
  </proto>
  <proto name="frame" showname="Frame 6: 267 bytes on wire (2136 bits), 267 bytes captured (2136 bits)" size="267" pos="0">
    <field name="frame.time" showname="Arrival Time: Oct 23, 2011 18:27:06.644555000 JST" size="0" pos="0" show="Oct 23, 2011 18:27:06.644555000"/>
    <field name="frame.time_epoch" showname="Epoch Time: 1319362026.644555000 seconds" size="0" pos="0" show="1319362026.644555000"/>
    <field name="frame.time_delta" showname="Time delta from previous captured frame: 0.002825000 seconds" size="0" pos="0" show="0.002825000"/>
    <field name="frame.time_delta_displayed" showname="Time delta from previous displayed frame: 0.002825000 seconds" size="0" pos="0" show="0.002825000"/>
    <field name="frame.time_relative" showname="Time since reference or first frame: 1.035801000 seconds" size="0" pos="0" show="1.035801000"/>
    <field name="frame.number" showname="Frame Number: 6" size="0" pos="0" show="6"/>
    <field name="frame.len" showname="Frame Length: 267 bytes (2136 bits)" size="0" pos="0" show="267"/>
    <field name="frame.cap_len" showname="Capture Length: 267 bytes (2136 bits)" size="0" pos="0" show="267"/>
    <field name="frame.marked" showname="Frame is marked: False" size="0" pos="0" show="0"/>
    <field name="frame.ignored" showname="Frame is ignored: False" size="0" pos="0" show="0"/>
    <field name="frame.protocols" showname="Protocols in frame: eth:ip:udp:corosync_totemnet:corosync_totempg:openais_cman:rgmanager" size="0" pos="0" show="eth:ip:udp:corosync_totemnet:corosync_totempg:openais_cman:rgmanager"/>
  </proto>
  <proto name="eth" showname="Ethernet II, Src: 54:52:00:01:00:61 (54:52:00:01:00:61), Dst: IPv4mcast_40:30:50 (01:00:5e:40:30:50)" size="14" pos="0">
    <field name="eth.dst" showname="Destination: IPv4mcast_40:30:50 (01:00:5e:40:30:50)" size="6" pos="0" show="01:00:5e:40:30:50" value="01005e403050">
      <field name="eth.addr" showname="Address: IPv4mcast_40:30:50 (01:00:5e:40:30:50)" size="6" pos="0" show="01:00:5e:40:30:50" value="01005e403050"/>
      <field name="eth.ig" showname=".... ...1 .... .... .... .... = IG bit: Group address (multicast/broadcast)" size="3" pos="0" show="1" value="1" unmaskedvalue="01005e"/>
      <field name="eth.lg" showname=".... ..0. .... .... .... .... = LG bit: Globally unique address (factory default)" size="3" pos="0" show="0" value="0" unmaskedvalue="01005e"/>
    </field>
    <field name="eth.src" showname="Source: 54:52:00:01:00:61 (54:52:00:01:00:61)" size="6" pos="6" show="54:52:00:01:00:61" value="545200010061">
      <field name="eth.addr" showname="Address: 54:52:00:01:00:61 (54:52:00:01:00:61)" size="6" pos="6" show="54:52:00:01:00:61" value="545200010061"/>
      <field name="eth.ig" showname=".... ...0 .... .... .... .... = IG bit: Individual address (unicast)" size="3" pos="6" show="0" value="0" unmaskedvalue="545200"/>
      <field name="eth.lg" showname=".... ..0. .... .... .... .... = LG bit: Globally unique address (factory default)" size="3" pos="6" show="0" value="0" unmaskedvalue="545200"/>
    </field>
    <field name="eth.type" showname="Type: IP (0x0800)" size="2" pos="12" show="0x0800" value="0800"/>
  </proto>
  <proto name="ip" showname="Internet Protocol Version 4, Src: 192.168.151.61 (192.168.151.61), Dst: 239.192.48.80 (239.192.48.80)" size="20" pos="14">
    <field name="ip.version" showname="Version: 4" size="1" pos="14" show="4" value="45"/>
    <field name="ip.hdr_len" showname="Header length: 20 bytes" size="1" pos="14" show="20" value="45"/>
    <field name="ip.dsfield" showname="Differentiated Services Field: 0x00 (DSCP 0x00: Default; ECN: 0x00: Not-ECT (Not ECN-Capable Transport))" size="1" pos="15" show="0" value="00">
      <field name="ip.dsfield.dscp" showname="0000 00.. = Differentiated Services Codepoint: Default (0x00)" size="1" pos="15" show="0x00" value="0" unmaskedvalue="00"/>
      <field name="ip.dsfield.ecn" showname=".... ..00 = Explicit Congestion Notification: Not-ECT (Not ECN-Capable Transport) (0x00)" size="1" pos="15" show="0x00" value="0" unmaskedvalue="00"/>
    </field>
    <field name="ip.len" showname="Total Length: 253" size="2" pos="16" show="253" value="00fd"/>
    <field name="ip.id" showname="Identification: 0x0000 (0)" size="2" pos="18" show="0x0000" value="0000"/>
    <field name="ip.flags" showname="Flags: 0x02 (Don&apos;t Fragment)" size="1" pos="20" show="0x02" value="40">
      <field name="ip.flags.rb" showname="0... .... = Reserved bit: Not set" size="1" pos="20" show="0" value="40"/>
      <field name="ip.flags.df" showname=".1.. .... = Don&apos;t fragment: Set" size="1" pos="20" show="1" value="40"/>
      <field name="ip.flags.mf" showname="..0. .... = More fragments: Not set" size="1" pos="20" show="0" value="40"/>
    </field>
    <field name="ip.frag_offset" showname="Fragment offset: 0" size="2" pos="20" show="0" value="4000"/>
    <field name="ip.ttl" showname="Time to live: 1" size="1" pos="22" show="1" value="01"/>
    <field name="ip.proto" showname="Protocol: UDP (17)" size="1" pos="23" show="17" value="11"/>
    <field name="ip.checksum" showname="Header checksum: 0x00fa [correct]" size="2" pos="24" show="0x00fa" value="00fa">
      <field name="ip.checksum_good" showname="Good: True" size="2" pos="24" show="1" value="00fa"/>
      <field name="ip.checksum_bad" showname="Bad: False" size="2" pos="24" show="0" value="00fa"/>
    </field>
    <field name="ip.src" showname="Source: 192.168.151.61 (192.168.151.61)" size="4" pos="26" show="192.168.151.61" value="c0a8973d"/>
    <field name="ip.addr" showname="Source or Destination Address: 192.168.151.61 (192.168.151.61)" hide="yes" size="4" pos="26" show="192.168.151.61" value="c0a8973d"/>
    <field name="ip.src_host" showname="Source Host: 192.168.151.61" hide="yes" size="4" pos="26" show="192.168.151.61" value="c0a8973d"/>
    <field name="ip.host" showname="Source or Destination Host: 192.168.151.61" hide="yes" size="4" pos="26" show="192.168.151.61" value="c0a8973d"/>
    <field name="ip.dst" showname="Destination: 239.192.48.80 (239.192.48.80)" size="4" pos="30" show="239.192.48.80" value="efc03050"/>
    <field name="ip.addr" showname="Source or Destination Address: 239.192.48.80 (239.192.48.80)" hide="yes" size="4" pos="30" show="239.192.48.80" value="efc03050"/>
    <field name="ip.dst_host" showname="Destination Host: 239.192.48.80" hide="yes" size="4" pos="30" show="239.192.48.80" value="efc03050"/>
    <field name="ip.host" showname="Source or Destination Host: 239.192.48.80" hide="yes" size="4" pos="30" show="239.192.48.80" value="efc03050"/>
  </proto>
  <proto name="udp" showname="User Datagram Protocol, Src Port: hpoms-dps-lstn (5404), Dst Port: netsupport (5405)" size="8" pos="34">
    <field name="udp.srcport" showname="Source port: hpoms-dps-lstn (5404)" size="2" pos="34" show="5404" value="151c"/>
    <field name="udp.dstport" showname="Destination port: netsupport (5405)" size="2" pos="36" show="5405" value="151d"/>
    <field name="udp.port" showname="Source or Destination Port: 5404" hide="yes" size="2" pos="34" show="5404" value="151c"/>
    <field name="udp.port" showname="Source or Destination Port: 5405" hide="yes" size="2" pos="36" show="5405" value="151d"/>
    <field name="udp.length" showname="Length: 233" size="2" pos="38" show="233" value="00e9"/>
    <field name="udp.checksum_coverage" showname="Checksum coverage: 233" hide="yes" size="0" pos="38" show="233"/>
    <field name="udp.checksum" showname="Checksum: 0x2238 [validation disabled]" size="2" pos="40" show="0x2238" value="2238">
      <field name="udp.checksum_good" showname="Good Checksum: False" size="2" pos="40" show="0" value="2238"/>
      <field name="udp.checksum_bad" showname="Bad Checksum: False" size="2" pos="40" show="0" value="2238"/>
    </field>
  </proto>
  <proto name="corosync_totemnet" showname="Totemnet Layer of Corosync Cluster Engine" size="224" pos="0">
    <field name="corosync_totemnet.security_header_hash_digest" showname="Hash digest: 44632a62c3f947e24e5ebac38f3ee9fc7ef7d7c1" size="20" pos="0" show="44:63:2a:62:c3:f9:47:e2:4e:5e:ba:c3:8f:3e:e9:fc:7e:f7:d7:c1" value="44632a62c3f947e24e5ebac38f3ee9fc7ef7d7c1"/>
    <field name="corosync_totemnet.security_header_salt" showname="Salt: 384ddb54620720b99b8a64a39b1a6658" size="16" pos="20" show="38:4d:db:54:62:07:20:b9:9b:8a:64:a3:9b:1a:66:58" value="384ddb54620720b99b8a64a39b1a6658"/>
    <field name="corosync_totemnet.security_crypto_type" showname="Cryptographic Type: SOBER (0)" size="1" pos="223" show="0" value="00"/>
    <field name="corosync_totemnet.security_crypto_key" showname="alpha" size="0" pos="0" show="" value=""/>
  </proto>
  <proto name="corosync_totemsrp" showname="Totem Single Ring Protocol implemented in Corosync Cluster Engine" size="188" pos="36">
    <field name="corosync_totemsrp.message_header.type" showname="Type: mcast (1)" size="1" pos="36" show="1" value="01"/>
    <field name="corosync_totemsrp.message_header.encapsulated" showname="Encapsulated: not encapsulated (2)" size="1" pos="37" show="2" value="02"/>
    <field name="corosync_totemsrp.message_header.endian_detector" showname="Endian detector: 0xff22" size="2" pos="38" show="0xff22" value="22ff"/>
    <field name="corosync_totemsrp.message_header.nodeid" showname="Node ID: 1" size="4" pos="40" show="1" value="01000000"/>
    <field name="corosync_totemsrp.mcast" showname="ring ordered multicast message" size="180" pos="44" show="" value="">
      <field name="corosync_totemsrp.mcast.system_from" showname="System from address" size="44" pos="44" show="" value="">
        <field name="corosync_totemsrp.ip_address" showname="Node IP address (interface: 0; node: 1)" size="22" pos="44" show="" value="">
          <field name="corosync_totemsrp.ip_address.nodeid" showname="Node ID: 1" size="4" pos="44" show="1" value="01000000"/>
          <field name="corosync_totemsrp.ip_address.family" showname="Address family: AF_INET (2)" size="2" pos="48" show="2" value="0200"/>
          <field name="corosync_totemsrp.ip_address.addr4" showname="Address: 192.168.151.61 (192.168.151.61)" size="4" pos="50" show="192.168.151.61" value="c0a8973d"/>
          <field name="corosync_totemsrp.ip_address.addr4_padding" showname="Address padding: 08000200c0a8973d08000400" size="12" pos="54" show="08:00:02:00:c0:a8:97:3d:08:00:04:00" value="08000200c0a8973d08000400"/>
        </field>
        <field name="corosync_totemsrp.ip_address" showname="Node IP address (interface: 1; node: 0)" size="22" pos="66" show="" value="">
          <field name="corosync_totemsrp.ip_address.nodeid" showname="Node ID: 0" size="4" pos="66" show="0" value="00000000"/>
          <field name="corosync_totemsrp.ip_address.family" showname="Address family: Unknown (0)" size="2" pos="70" show="0" value="0000"/>
          <field name="corosync_totemsrp.ip_address.addr" showname="Address: 00000000000000000000000000000000" size="16" pos="72" show="00:00:00:00:00:00:00:00:00:00:00:00:00:00:00:00" value="00000000000000000000000000000000"/>
        </field>
      </field>
      <field name="corosync_totemsrp.mcast.seq" showname="Multicast sequence number: 182" size="4" pos="88" show="182" value="b6000000"/>
      <field name="corosync_totemsrp.mcast.this_seqno" showname="This Sequence number: 106" size="4" pos="92" show="106" value="6a000000"/>
      <field name="corosync_totemsrp.memb_ring_id" showname="Member ring id (node: 1)" size="30" pos="96" show="" value="">
        <field name="corosync_totemsrp.ip_address" showname="Node IP address (node: 1)" size="22" pos="96" show="" value="">
          <field name="corosync_totemsrp.ip_address.nodeid" showname="Node ID: 1" size="4" pos="96" show="1" value="01000000"/>
          <field name="corosync_totemsrp.ip_address.family" showname="Address family: AF_INET (2)" size="2" pos="100" show="2" value="0200"/>
          <field name="corosync_totemsrp.ip_address.addr4" showname="Address: 192.168.151.61 (192.168.151.61)" size="4" pos="102" show="192.168.151.61" value="c0a8973d"/>
          <field name="corosync_totemsrp.ip_address.addr4_padding" showname="Address padding: 08000200c0a8973d08000400" size="12" pos="106" show="08:00:02:00:c0:a8:97:3d:08:00:04:00" value="08000200c0a8973d08000400"/>
        </field>
        <field name="corosync_totemsrp.memb_ring_id.seq" showname="Squence in member ring id: 30000" size="8" pos="118" show="30000" value="3075000000000000"/>
      </field>
      <field name="corosync_totemsrp.mcast.node_id" showname="Node id(unused?): 0" size="4" pos="126" show="0" value="00000000"/>
      <field name="corosync_totemsrp.mcast.guarantee" showname="Guarantee: 0" size="4" pos="130" show="0" value="00000000"/>
    </field>
  </proto>
  <proto name="corosync_totempg" showname="Process Group Layer of Corosync Cluster Engine" size="90" pos="134">
    <field name="corosync_totempg.mcast_header" showname="Multicast packet header" size="4" pos="134" show="" value="">
      <field name="corosync_totempg.mcast_header.version" showname="Version: 0" size="2" pos="134" show="0" value="0000"/>
      <field name="corosync_totempg.mcast_header.type" showname="Type: 444" size="2" pos="136" show="444" value="bc01"/>
    </field>
    <field name="corosync_totempg.fragmented" showname="Fragment flag: 0" size="1" pos="138" show="0" value="00"/>
    <field name="corosync_totempg.continuation" showname="Continuation flag: 0" size="1" pos="139" show="0" value="00"/>
    <field name="corosync_totempg.msg_count" showname="Count of messages: 1" size="2" pos="140" show="1" value="0100"/>
    <field name="corosync_totempg.msg_len" showname="Length of message: 80 (msg index: 0)" size="2" pos="142" show="80" value="5000"/>
    <field name="corosync_totempg.mcast_message" showname="Multicast packet message (msg index: 0)" size="80" pos="144" show="" value="">
      <field name="corosync_totempg.group_count" showname="Group count: 1" size="2" pos="144" show="1" value="0100"/>
      <field name="corosync_totempg.group_len" showname="Length of group name: 4 (group index: 0)" size="2" pos="146" show="4" value="0400"/>
      <field name="corosync_totempg.group_name" showname="Group name: CMAN (group index: 0)" size="4" pos="148" show="CMAN" value="434d414e"/>
      <proto name="openais_cman" showname="Cman running on OpenAIS" size="72" pos="152">
        <field name="openais_cman.tgtport" showname="Target port number: 177 (RGMANAGER)" size="1" pos="152" show="177" value="b1"/>
        <field name="openais_cman.srcport" showname="Source port number: 177" size="1" pos="153" show="177" value="b1"/>
        <field name="openais_cman.pad" showname="Padding: 62395" size="2" pos="154" show="62395" value="bbf3"/>
        <field name="openais_cman.flags" showname="Flags: 0" size="4" pos="156" show="0" value="00000000"/>
        <field name="openais_cman.srcid" showname="Source node id: 1" size="4" pos="160" show="1" value="01000000"/>
        <field name="openais_cman.tgtid" showname="Target node id: 0 (whole cluster)" size="4" pos="164" show="0" value="00000000"/>
        <proto name="rgmanager" showname="Resource group manager" size="56" pos="168">
          <field name="rgmanager.cluster_msg_header.src_ctx" showname="Source context: 6" size="4" pos="168" show="6" value="00000006"/>
          <field name="rgmanager.cluster_msg_header.src_nodeid" showname="Source node id: 1" size="4" pos="172" show="1" value="00000001"/>
          <field name="rgmanager.cluster_msg_header.dest_ctx" showname="Destination context: 0 (broadcast)" size="4" pos="176" show="0" value="00000000"/>
          <field name="rgmanager.cluster_msg_header.dest_nodeid" showname="Destination node id: 0" size="4" pos="180" show="0" value="00000000"/>
          <field name="rgmanager.cluster_msg_header.msg_contorol" showname="Message contorol: data (4)" size="1" pos="184" show="4" value="04"/>
          <field name="rgmanager.cluster_msg_header.msg_port" showname="Message port: 177" size="1" pos="185" show="177" value="b1"/>
          <field name="rgmanager.cluster_msg_header.pad" showname="Padding: 0x0000" size="2" pos="186" show="0x0000" value="0000"/>
          <field name="rgmanager.cluster_msg_header.reserved" showname="Reserved: 00000000b100000000000000" size="12" pos="188" show="00:00:00:00:b1:00:00:00:00:00:00:00" value="00000000b100000000000000"/>
          <field name="rgmanager.generic_msg_hdr.magic" showname="Magic: version 0 (0x123abc00)" size="4" pos="200" show="0x123abc00" value="123abc00"/>
          <field name="rgmanager.generic_msg_hdr.length" showname="Length: 24" size="4" pos="204" show="24" value="00000018"/>
          <field name="rgmanager.generic_msg_hdr.command" showname="Command: view formation message (0x00003000)" size="4" pos="208" show="0x00003000" value="00003000"/>
          <field name="rgmanager.generic_msg_hdr.vf_command" showname="View formation command holder: 0x00003005, VF command: view formed, VF flags: Unknown" size="4" pos="212" show="0x00003005" value="00003005">
            <field name="rgmanager.vf_command" showname=".... .... .... .... 0011 0000 0000 0101 = VF command: view formed (0x00003005)" size="4" pos="212" show="0x00003005" value="3005" unmaskedvalue="00003005"/>
            <field name="rgmanager.vf_flags" showname="0000 0000 0000 0000 .... .... .... .... = VF flags: Unknown (0x00000000)" size="4" pos="212" show="0x00000000" value="0" unmaskedvalue="00003005"/>
          </field>
          <field name="rgmanager.generic_msg_hdr.vf_trans" showname="View formed transaction: 0x00010003" size="4" pos="216" show="0x00010003" value="00010003"/>
          <field name="rgmanager.generic_msg_hdr.arg3" showname="Arguement 3: 0 (unused)" size="4" pos="220" show="0" value="00000000"/>
        </proto>
      </proto>
    </field>
  </proto>
</packet>


<packet>
  <proto name="geninfo" pos="0" showname="General information" size="451">
    <field name="num" pos="0" show="7" showname="Number" value="7" size="451"/>
    <field name="len" pos="0" show="451" showname="Frame Length" value="1c3" size="451"/>
    <field name="caplen" pos="0" show="451" showname="Captured Length" value="1c3" size="451"/>
    <field name="timestamp" pos="0" show="Oct 23, 2011 18:27:07.172958000 JST" showname="Captured Time" value="1319362027.172958000" size="451"/>
  </proto>
  <proto name="frame" showname="Frame 7: 451 bytes on wire (3608 bits), 451 bytes captured (3608 bits)" size="451" pos="0">
    <field name="frame.time" showname="Arrival Time: Oct 23, 2011 18:27:07.172958000 JST" size="0" pos="0" show="Oct 23, 2011 18:27:07.172958000"/>
    <field name="frame.time_epoch" showname="Epoch Time: 1319362027.172958000 seconds" size="0" pos="0" show="1319362027.172958000"/>
    <field name="frame.time_delta" showname="Time delta from previous captured frame: 0.528403000 seconds" size="0" pos="0" show="0.528403000"/>
    <field name="frame.time_delta_displayed" showname="Time delta from previous displayed frame: 0.528403000 seconds" size="0" pos="0" show="0.528403000"/>
    <field name="frame.time_relative" showname="Time since reference or first frame: 1.564204000 seconds" size="0" pos="0" show="1.564204000"/>
    <field name="frame.number" showname="Frame Number: 7" size="0" pos="0" show="7"/>
    <field name="frame.len" showname="Frame Length: 451 bytes (3608 bits)" size="0" pos="0" show="451"/>
    <field name="frame.cap_len" showname="Capture Length: 451 bytes (3608 bits)" size="0" pos="0" show="451"/>
    <field name="frame.marked" showname="Frame is marked: False" size="0" pos="0" show="0"/>
    <field name="frame.ignored" showname="Frame is ignored: False" size="0" pos="0" show="0"/>
    <field name="frame.protocols" showname="Protocols in frame: eth:ip:udp:corosync_totemnet:corosync_totempg:openais_cman:rgmanager" size="0" pos="0" show="eth:ip:udp:corosync_totemnet:corosync_totempg:openais_cman:rgmanager"/>
  </proto>
  <proto name="eth" showname="Ethernet II, Src: 54:52:00:01:00:61 (54:52:00:01:00:61), Dst: IPv4mcast_40:30:50 (01:00:5e:40:30:50)" size="14" pos="0">
    <field name="eth.dst" showname="Destination: IPv4mcast_40:30:50 (01:00:5e:40:30:50)" size="6" pos="0" show="01:00:5e:40:30:50" value="01005e403050">
      <field name="eth.addr" showname="Address: IPv4mcast_40:30:50 (01:00:5e:40:30:50)" size="6" pos="0" show="01:00:5e:40:30:50" value="01005e403050"/>
      <field name="eth.ig" showname=".... ...1 .... .... .... .... = IG bit: Group address (multicast/broadcast)" size="3" pos="0" show="1" value="1" unmaskedvalue="01005e"/>
      <field name="eth.lg" showname=".... ..0. .... .... .... .... = LG bit: Globally unique address (factory default)" size="3" pos="0" show="0" value="0" unmaskedvalue="01005e"/>
    </field>
    <field name="eth.src" showname="Source: 54:52:00:01:00:61 (54:52:00:01:00:61)" size="6" pos="6" show="54:52:00:01:00:61" value="545200010061">
      <field name="eth.addr" showname="Address: 54:52:00:01:00:61 (54:52:00:01:00:61)" size="6" pos="6" show="54:52:00:01:00:61" value="545200010061"/>
      <field name="eth.ig" showname=".... ...0 .... .... .... .... = IG bit: Individual address (unicast)" size="3" pos="6" show="0" value="0" unmaskedvalue="545200"/>
      <field name="eth.lg" showname=".... ..0. .... .... .... .... = LG bit: Globally unique address (factory default)" size="3" pos="6" show="0" value="0" unmaskedvalue="545200"/>
    </field>
    <field name="eth.type" showname="Type: IP (0x0800)" size="2" pos="12" show="0x0800" value="0800"/>
  </proto>
  <proto name="ip" showname="Internet Protocol Version 4, Src: 192.168.151.61 (192.168.151.61), Dst: 239.192.48.80 (239.192.48.80)" size="20" pos="14">
    <field name="ip.version" showname="Version: 4" size="1" pos="14" show="4" value="45"/>
    <field name="ip.hdr_len" showname="Header length: 20 bytes" size="1" pos="14" show="20" value="45"/>
    <field name="ip.dsfield" showname="Differentiated Services Field: 0x00 (DSCP 0x00: Default; ECN: 0x00: Not-ECT (Not ECN-Capable Transport))" size="1" pos="15" show="0" value="00">
      <field name="ip.dsfield.dscp" showname="0000 00.. = Differentiated Services Codepoint: Default (0x00)" size="1" pos="15" show="0x00" value="0" unmaskedvalue="00"/>
      <field name="ip.dsfield.ecn" showname=".... ..00 = Explicit Congestion Notification: Not-ECT (Not ECN-Capable Transport) (0x00)" size="1" pos="15" show="0x00" value="0" unmaskedvalue="00"/>
    </field>
    <field name="ip.len" showname="Total Length: 437" size="2" pos="16" show="437" value="01b5"/>
    <field name="ip.id" showname="Identification: 0x0000 (0)" size="2" pos="18" show="0x0000" value="0000"/>
    <field name="ip.flags" showname="Flags: 0x02 (Don&apos;t Fragment)" size="1" pos="20" show="0x02" value="40">
      <field name="ip.flags.rb" showname="0... .... = Reserved bit: Not set" size="1" pos="20" show="0" value="40"/>
      <field name="ip.flags.df" showname=".1.. .... = Don&apos;t fragment: Set" size="1" pos="20" show="1" value="40"/>
      <field name="ip.flags.mf" showname="..0. .... = More fragments: Not set" size="1" pos="20" show="0" value="40"/>
    </field>
    <field name="ip.frag_offset" showname="Fragment offset: 0" size="2" pos="20" show="0" value="4000"/>
    <field name="ip.ttl" showname="Time to live: 1" size="1" pos="22" show="1" value="01"/>
    <field name="ip.proto" showname="Protocol: UDP (17)" size="1" pos="23" show="17" value="11"/>
    <field name="ip.checksum" showname="Header checksum: 0x0042 [correct]" size="2" pos="24" show="0x0042" value="0042">
      <field name="ip.checksum_good" showname="Good: True" size="2" pos="24" show="1" value="0042"/>
      <field name="ip.checksum_bad" showname="Bad: False" size="2" pos="24" show="0" value="0042"/>
    </field>
    <field name="ip.src" showname="Source: 192.168.151.61 (192.168.151.61)" size="4" pos="26" show="192.168.151.61" value="c0a8973d"/>
    <field name="ip.addr" showname="Source or Destination Address: 192.168.151.61 (192.168.151.61)" hide="yes" size="4" pos="26" show="192.168.151.61" value="c0a8973d"/>
    <field name="ip.src_host" showname="Source Host: 192.168.151.61" hide="yes" size="4" pos="26" show="192.168.151.61" value="c0a8973d"/>
    <field name="ip.host" showname="Source or Destination Host: 192.168.151.61" hide="yes" size="4" pos="26" show="192.168.151.61" value="c0a8973d"/>
    <field name="ip.dst" showname="Destination: 239.192.48.80 (239.192.48.80)" size="4" pos="30" show="239.192.48.80" value="efc03050"/>
    <field name="ip.addr" showname="Source or Destination Address: 239.192.48.80 (239.192.48.80)" hide="yes" size="4" pos="30" show="239.192.48.80" value="efc03050"/>
    <field name="ip.dst_host" showname="Destination Host: 239.192.48.80" hide="yes" size="4" pos="30" show="239.192.48.80" value="efc03050"/>
    <field name="ip.host" showname="Source or Destination Host: 239.192.48.80" hide="yes" size="4" pos="30" show="239.192.48.80" value="efc03050"/>
  </proto>
  <proto name="udp" showname="User Datagram Protocol, Src Port: hpoms-dps-lstn (5404), Dst Port: netsupport (5405)" size="8" pos="34">
    <field name="udp.srcport" showname="Source port: hpoms-dps-lstn (5404)" size="2" pos="34" show="5404" value="151c"/>
    <field name="udp.dstport" showname="Destination port: netsupport (5405)" size="2" pos="36" show="5405" value="151d"/>
    <field name="udp.port" showname="Source or Destination Port: 5404" hide="yes" size="2" pos="34" show="5404" value="151c"/>
    <field name="udp.port" showname="Source or Destination Port: 5405" hide="yes" size="2" pos="36" show="5405" value="151d"/>
    <field name="udp.length" showname="Length: 417" size="2" pos="38" show="417" value="01a1"/>
    <field name="udp.checksum_coverage" showname="Checksum coverage: 417" hide="yes" size="0" pos="38" show="417"/>
    <field name="udp.checksum" showname="Checksum: 0x273f [validation disabled]" size="2" pos="40" show="0x273f" value="273f">
      <field name="udp.checksum_good" showname="Good Checksum: False" size="2" pos="40" show="0" value="273f"/>
      <field name="udp.checksum_bad" showname="Bad Checksum: False" size="2" pos="40" show="0" value="273f"/>
    </field>
  </proto>
  <proto name="corosync_totemnet" showname="Totemnet Layer of Corosync Cluster Engine" size="408" pos="0">
    <field name="corosync_totemnet.security_header_hash_digest" showname="Hash digest: ac32dc5b0db39bcdc67c1d51ab99aea8981ed7bb" size="20" pos="0" show="ac:32:dc:5b:0d:b3:9b:cd:c6:7c:1d:51:ab:99:ae:a8:98:1e:d7:bb" value="ac32dc5b0db39bcdc67c1d51ab99aea8981ed7bb"/>
    <field name="corosync_totemnet.security_header_salt" showname="Salt: 7d9d92dd6e61d20f84cd75de01a4e627" size="16" pos="20" show="7d:9d:92:dd:6e:61:d2:0f:84:cd:75:de:01:a4:e6:27" value="7d9d92dd6e61d20f84cd75de01a4e627"/>
    <field name="corosync_totemnet.security_crypto_type" showname="Cryptographic Type: SOBER (0)" size="1" pos="407" show="0" value="00"/>
    <field name="corosync_totemnet.security_crypto_key" showname="alpha" size="0" pos="0" show="" value=""/>
  </proto>
  <proto name="corosync_totemsrp" showname="Totem Single Ring Protocol implemented in Corosync Cluster Engine" size="372" pos="36">
    <field name="corosync_totemsrp.message_header.type" showname="Type: mcast (1)" size="1" pos="36" show="1" value="01"/>
    <field name="corosync_totemsrp.message_header.encapsulated" showname="Encapsulated: not encapsulated (2)" size="1" pos="37" show="2" value="02"/>
    <field name="corosync_totemsrp.message_header.endian_detector" showname="Endian detector: 0xff22" size="2" pos="38" show="0xff22" value="22ff"/>
    <field name="corosync_totemsrp.message_header.nodeid" showname="Node ID: 1" size="4" pos="40" show="1" value="01000000"/>
    <field name="corosync_totemsrp.mcast" showname="ring ordered multicast message" size="364" pos="44" show="" value="">
      <field name="corosync_totemsrp.mcast.system_from" showname="System from address" size="44" pos="44" show="" value="">
        <field name="corosync_totemsrp.ip_address" showname="Node IP address (interface: 0; node: 1)" size="22" pos="44" show="" value="">
          <field name="corosync_totemsrp.ip_address.nodeid" showname="Node ID: 1" size="4" pos="44" show="1" value="01000000"/>
          <field name="corosync_totemsrp.ip_address.family" showname="Address family: AF_INET (2)" size="2" pos="48" show="2" value="0200"/>
          <field name="corosync_totemsrp.ip_address.addr4" showname="Address: 192.168.151.61 (192.168.151.61)" size="4" pos="50" show="192.168.151.61" value="c0a8973d"/>
          <field name="corosync_totemsrp.ip_address.addr4_padding" showname="Address padding: 08000200c0a8973d08000400" size="12" pos="54" show="08:00:02:00:c0:a8:97:3d:08:00:04:00" value="08000200c0a8973d08000400"/>
        </field>
        <field name="corosync_totemsrp.ip_address" showname="Node IP address (interface: 1; node: 0)" size="22" pos="66" show="" value="">
          <field name="corosync_totemsrp.ip_address.nodeid" showname="Node ID: 0" size="4" pos="66" show="0" value="00000000"/>
          <field name="corosync_totemsrp.ip_address.family" showname="Address family: Unknown (0)" size="2" pos="70" show="0" value="0000"/>
          <field name="corosync_totemsrp.ip_address.addr" showname="Address: 00000000000000000000000000000000" size="16" pos="72" show="00:00:00:00:00:00:00:00:00:00:00:00:00:00:00:00" value="00000000000000000000000000000000"/>
        </field>
      </field>
      <field name="corosync_totemsrp.mcast.seq" showname="Multicast sequence number: 183" size="4" pos="88" show="183" value="b7000000"/>
      <field name="corosync_totemsrp.mcast.this_seqno" showname="This Sequence number: 107" size="4" pos="92" show="107" value="6b000000"/>
      <field name="corosync_totemsrp.memb_ring_id" showname="Member ring id (node: 1)" size="30" pos="96" show="" value="">
        <field name="corosync_totemsrp.ip_address" showname="Node IP address (node: 1)" size="22" pos="96" show="" value="">
          <field name="corosync_totemsrp.ip_address.nodeid" showname="Node ID: 1" size="4" pos="96" show="1" value="01000000"/>
          <field name="corosync_totemsrp.ip_address.family" showname="Address family: AF_INET (2)" size="2" pos="100" show="2" value="0200"/>
          <field name="corosync_totemsrp.ip_address.addr4" showname="Address: 192.168.151.61 (192.168.151.61)" size="4" pos="102" show="192.168.151.61" value="c0a8973d"/>
          <field name="corosync_totemsrp.ip_address.addr4_padding" showname="Address padding: 08000200c0a8973d08000400" size="12" pos="106" show="08:00:02:00:c0:a8:97:3d:08:00:04:00" value="08000200c0a8973d08000400"/>
        </field>
        <field name="corosync_totemsrp.memb_ring_id.seq" showname="Squence in member ring id: 30000" size="8" pos="118" show="30000" value="3075000000000000"/>
      </field>
      <field name="corosync_totemsrp.mcast.node_id" showname="Node id(unused?): 0" size="4" pos="126" show="0" value="00000000"/>
      <field name="corosync_totemsrp.mcast.guarantee" showname="Guarantee: 0" size="4" pos="130" show="0" value="00000000"/>
    </field>
  </proto>
  <proto name="corosync_totempg" showname="Process Group Layer of Corosync Cluster Engine" size="274" pos="134">
    <field name="corosync_totempg.mcast_header" showname="Multicast packet header" size="4" pos="134" show="" value="">
      <field name="corosync_totempg.mcast_header.version" showname="Version: 0" size="2" pos="134" show="0" value="0000"/>
      <field name="corosync_totempg.mcast_header.type" showname="Type: 0" size="2" pos="136" show="0" value="0000"/>
    </field>
    <field name="corosync_totempg.fragmented" showname="Fragment flag: 0" size="1" pos="138" show="0" value="00"/>
    <field name="corosync_totempg.continuation" showname="Continuation flag: 0" size="1" pos="139" show="0" value="00"/>
    <field name="corosync_totempg.msg_count" showname="Count of messages: 1" size="2" pos="140" show="1" value="0100"/>
    <field name="corosync_totempg.msg_len" showname="Length of message: 264 (msg index: 0)" size="2" pos="142" show="264" value="0801"/>
    <field name="corosync_totempg.mcast_message" showname="Multicast packet message (msg index: 0)" size="264" pos="144" show="" value="">
      <field name="corosync_totempg.group_count" showname="Group count: 1" size="2" pos="144" show="1" value="0100"/>
      <field name="corosync_totempg.group_len" showname="Length of group name: 4 (group index: 0)" size="2" pos="146" show="4" value="0400"/>
      <field name="corosync_totempg.group_name" showname="Group name: CMAN (group index: 0)" size="4" pos="148" show="CMAN" value="434d414e"/>
      <proto name="openais_cman" showname="Cman running on OpenAIS" size="256" pos="152">
        <field name="openais_cman.tgtport" showname="Target port number: 177 (RGMANAGER)" size="1" pos="152" show="177" value="b1"/>
        <field name="openais_cman.srcport" showname="Source port number: 177" size="1" pos="153" show="177" value="b1"/>
        <field name="openais_cman.pad" showname="Padding: 62395" size="2" pos="154" show="62395" value="bbf3"/>
        <field name="openais_cman.flags" showname="Flags: 0" size="4" pos="156" show="0" value="00000000"/>
        <field name="openais_cman.srcid" showname="Source node id: 1" size="4" pos="160" show="1" value="01000000"/>
        <field name="openais_cman.tgtid" showname="Target node id: 0 (whole cluster)" size="4" pos="164" show="0" value="00000000"/>
        <proto name="rgmanager" showname="Resource group manager" size="240" pos="168">
          <field name="rgmanager.cluster_msg_header.src_ctx" showname="Source context: 7" size="4" pos="168" show="7" value="00000007"/>
          <field name="rgmanager.cluster_msg_header.src_nodeid" showname="Source node id: 1" size="4" pos="172" show="1" value="00000001"/>
          <field name="rgmanager.cluster_msg_header.dest_ctx" showname="Destination context: 0 (broadcast)" size="4" pos="176" show="0" value="00000000"/>
          <field name="rgmanager.cluster_msg_header.dest_nodeid" showname="Destination node id: 0" size="4" pos="180" show="0" value="00000000"/>
          <field name="rgmanager.cluster_msg_header.msg_contorol" showname="Message contorol: data (4)" size="1" pos="184" show="4" value="04"/>
          <field name="rgmanager.cluster_msg_header.msg_port" showname="Message port: 177" size="1" pos="185" show="177" value="b1"/>
          <field name="rgmanager.cluster_msg_header.pad" showname="Padding: 0xff03" size="2" pos="186" show="0xff03" value="ff03"/>
          <field name="rgmanager.cluster_msg_header.reserved" showname="Reserved: e37f0000a8f6ff03e37f0000" size="12" pos="188" show="e3:7f:00:00:a8:f6:ff:03:e3:7f:00:00" value="e37f0000a8f6ff03e37f0000"/>
          <field name="rgmanager.generic_msg_hdr.magic" showname="Magic: version 0 (0x123abc00)" size="4" pos="200" show="0x123abc00" value="123abc00"/>
          <field name="rgmanager.generic_msg_hdr.length" showname="Length: 208" size="4" pos="204" show="208" value="000000d0"/>
          <field name="rgmanager.generic_msg_hdr.command" showname="Command: view formation message (0x00003000)" size="4" pos="208" show="0x00003000" value="00003000"/>
          <field name="rgmanager.generic_msg_hdr.vf_command" showname="View formation command holder: 0x00003001, VF command: join view, VF flags: Unknown" size="4" pos="212" show="0x00003001" value="00003001">
            <field name="rgmanager.vf_command" showname=".... .... .... .... 0011 0000 0000 0001 = VF command: join view (0x00003001)" size="4" pos="212" show="0x00003001" value="3001" unmaskedvalue="00003001"/>
            <field name="rgmanager.vf_flags" showname="0000 0000 0000 0000 .... .... .... .... = VF flags: Unknown (0x00000000)" size="4" pos="212" show="0x00000000" value="0" unmaskedvalue="00003001"/>
          </field>
          <field name="rgmanager.generic_msg_hdr.arg2" showname="Arguement 2: 0 (unused)" size="4" pos="216" show="0" value="00000000"/>
          <field name="rgmanager.generic_msg_hdr.arg3" showname="Arguement 3: 0 (unused)" size="4" pos="220" show="0" value="00000000"/>
          <field name="rgmanager.vf_msg_info" showname="View formation message" size="184" pos="224" show="" value="">
            <field name="rgmanager.vf_msg_info.vf_command" showname=".... .... .... .... 0000 0000 0000 0000 = Command (unused): Unknown (0x00000000)" size="4" pos="224" show="0x00000000" value="0" unmaskedvalue="00000000"/>
            <field name="rgmanager.vf_msg_info.vf_transaction" showname="Transaction: 0x00010004" size="4" pos="228" show="0x00010004" value="00010004"/>
            <field name="rgmanager.vf_msg_info.vf_keyid" showname="Key id: rg=&quot;service:web&quot;" size="64" pos="232" show="rg=\&quot;service:web\&quot;" value="72673d22736572766963653a77656222000000000000000000000000000000000000000000000000000000000000000000000000000000000000000000000000"/>
            <field name="rgmanager.vf_msg_info.vf_coordinator" showname="Coordinator: 1" size="4" pos="296" show="1" value="00000001"/>
            <field name="rgmanager.vf_msg_info.vf_datalen" showname="Data length: 96" size="4" pos="300" show="96" value="00000060"/>
            <field name="rgmanager.vf_msg_info.vf_view" showname="View: 0x0000000000000016" size="8" pos="304" show="0x0000000000000016" value="0000000000000016"/>
            <field name="rgmanager.vf_msg_info.vf_data" showname="Data: service:web" size="96" pos="312" show="service:web" value="736572766963653a7765620000000000000000000000000000000000000000000000000000000000000000000000000000000000000000000000000000000000000000000000000000000000010000007600000000000000605fa34e00000000">
              <field name="rgmanager.rg_state.rs_name" showname="Name of resource group: service:web" size="64" pos="312" show="service:web" value="736572766963653a7765620000000000000000000000000000000000000000000000000000000000000000000000000000000000000000000000000000000000"/>
              <field name="rgmanager.rg_state.rs_flags" showname="Flags of resource group : 0" size="4" pos="376" show="0" value="00000000"/>
              <field name="rgmanager.rg_state.rs_magic" showname="Magic : 0x00000000" size="4" pos="380" show="0x00000000" value="00000000"/>
              <field name="rgmanager.rg_state.rs_owner" showname="Owner of resource group : 0" size="4" pos="384" show="0" value="00000000"/>
              <field name="rgmanager.rg_state.rs_last_owner" showname="The last owner of resource group : 1" size="4" pos="388" show="1" value="01000000"/>
              <field name="rgmanager.rg_state.rs_state" showname="The state of resource group: recover (118)" size="4" pos="392" show="118" value="76000000"/>
              <field name="rgmanager.rg_state.rs_restarts" showname="The number of restarts: 0" size="4" pos="396" show="0" value="00000000"/>
              <field name="rgmanager.rg_state.rs_transition" showname="The last service transaction time: 1319329632" size="8" pos="400" show="1319329632" value="605fa34e00000000"/>
              <field name="" show="Sun Oct 23 09:27:12 2011" size="8" pos="400" value="605fa34e00000000"/>
            </field>
          </field>
        </proto>
      </proto>
    </field>
  </proto>
</packet>


<packet>
  <proto name="geninfo" pos="0" showname="General information" size="267">
    <field name="num" pos="0" show="8" showname="Number" value="8" size="267"/>
    <field name="len" pos="0" show="267" showname="Frame Length" value="10b" size="267"/>
    <field name="caplen" pos="0" show="267" showname="Captured Length" value="10b" size="267"/>
    <field name="timestamp" pos="0" show="Oct 23, 2011 18:27:07.174245000 JST" showname="Captured Time" value="1319362027.174245000" size="267"/>
  </proto>
  <proto name="frame" showname="Frame 8: 267 bytes on wire (2136 bits), 267 bytes captured (2136 bits)" size="267" pos="0">
    <field name="frame.time" showname="Arrival Time: Oct 23, 2011 18:27:07.174245000 JST" size="0" pos="0" show="Oct 23, 2011 18:27:07.174245000"/>
    <field name="frame.time_epoch" showname="Epoch Time: 1319362027.174245000 seconds" size="0" pos="0" show="1319362027.174245000"/>
    <field name="frame.time_delta" showname="Time delta from previous captured frame: 0.001287000 seconds" size="0" pos="0" show="0.001287000"/>
    <field name="frame.time_delta_displayed" showname="Time delta from previous displayed frame: 0.001287000 seconds" size="0" pos="0" show="0.001287000"/>
    <field name="frame.time_relative" showname="Time since reference or first frame: 1.565491000 seconds" size="0" pos="0" show="1.565491000"/>
    <field name="frame.number" showname="Frame Number: 8" size="0" pos="0" show="8"/>
    <field name="frame.len" showname="Frame Length: 267 bytes (2136 bits)" size="0" pos="0" show="267"/>
    <field name="frame.cap_len" showname="Capture Length: 267 bytes (2136 bits)" size="0" pos="0" show="267"/>
    <field name="frame.marked" showname="Frame is marked: False" size="0" pos="0" show="0"/>
    <field name="frame.ignored" showname="Frame is ignored: False" size="0" pos="0" show="0"/>
    <field name="frame.protocols" showname="Protocols in frame: eth:ip:udp:corosync_totemnet:corosync_totempg:openais_cman:rgmanager" size="0" pos="0" show="eth:ip:udp:corosync_totemnet:corosync_totempg:openais_cman:rgmanager"/>
  </proto>
  <proto name="eth" showname="Ethernet II, Src: 54:52:00:01:00:61 (54:52:00:01:00:61), Dst: IPv4mcast_40:30:50 (01:00:5e:40:30:50)" size="14" pos="0">
    <field name="eth.dst" showname="Destination: IPv4mcast_40:30:50 (01:00:5e:40:30:50)" size="6" pos="0" show="01:00:5e:40:30:50" value="01005e403050">
      <field name="eth.addr" showname="Address: IPv4mcast_40:30:50 (01:00:5e:40:30:50)" size="6" pos="0" show="01:00:5e:40:30:50" value="01005e403050"/>
      <field name="eth.ig" showname=".... ...1 .... .... .... .... = IG bit: Group address (multicast/broadcast)" size="3" pos="0" show="1" value="1" unmaskedvalue="01005e"/>
      <field name="eth.lg" showname=".... ..0. .... .... .... .... = LG bit: Globally unique address (factory default)" size="3" pos="0" show="0" value="0" unmaskedvalue="01005e"/>
    </field>
    <field name="eth.src" showname="Source: 54:52:00:01:00:61 (54:52:00:01:00:61)" size="6" pos="6" show="54:52:00:01:00:61" value="545200010061">
      <field name="eth.addr" showname="Address: 54:52:00:01:00:61 (54:52:00:01:00:61)" size="6" pos="6" show="54:52:00:01:00:61" value="545200010061"/>
      <field name="eth.ig" showname=".... ...0 .... .... .... .... = IG bit: Individual address (unicast)" size="3" pos="6" show="0" value="0" unmaskedvalue="545200"/>
      <field name="eth.lg" showname=".... ..0. .... .... .... .... = LG bit: Globally unique address (factory default)" size="3" pos="6" show="0" value="0" unmaskedvalue="545200"/>
    </field>
    <field name="eth.type" showname="Type: IP (0x0800)" size="2" pos="12" show="0x0800" value="0800"/>
  </proto>
  <proto name="ip" showname="Internet Protocol Version 4, Src: 192.168.151.61 (192.168.151.61), Dst: 239.192.48.80 (239.192.48.80)" size="20" pos="14">
    <field name="ip.version" showname="Version: 4" size="1" pos="14" show="4" value="45"/>
    <field name="ip.hdr_len" showname="Header length: 20 bytes" size="1" pos="14" show="20" value="45"/>
    <field name="ip.dsfield" showname="Differentiated Services Field: 0x00 (DSCP 0x00: Default; ECN: 0x00: Not-ECT (Not ECN-Capable Transport))" size="1" pos="15" show="0" value="00">
      <field name="ip.dsfield.dscp" showname="0000 00.. = Differentiated Services Codepoint: Default (0x00)" size="1" pos="15" show="0x00" value="0" unmaskedvalue="00"/>
      <field name="ip.dsfield.ecn" showname=".... ..00 = Explicit Congestion Notification: Not-ECT (Not ECN-Capable Transport) (0x00)" size="1" pos="15" show="0x00" value="0" unmaskedvalue="00"/>
    </field>
    <field name="ip.len" showname="Total Length: 253" size="2" pos="16" show="253" value="00fd"/>
    <field name="ip.id" showname="Identification: 0x0000 (0)" size="2" pos="18" show="0x0000" value="0000"/>
    <field name="ip.flags" showname="Flags: 0x02 (Don&apos;t Fragment)" size="1" pos="20" show="0x02" value="40">
      <field name="ip.flags.rb" showname="0... .... = Reserved bit: Not set" size="1" pos="20" show="0" value="40"/>
      <field name="ip.flags.df" showname=".1.. .... = Don&apos;t fragment: Set" size="1" pos="20" show="1" value="40"/>
      <field name="ip.flags.mf" showname="..0. .... = More fragments: Not set" size="1" pos="20" show="0" value="40"/>
    </field>
    <field name="ip.frag_offset" showname="Fragment offset: 0" size="2" pos="20" show="0" value="4000"/>
    <field name="ip.ttl" showname="Time to live: 1" size="1" pos="22" show="1" value="01"/>
    <field name="ip.proto" showname="Protocol: UDP (17)" size="1" pos="23" show="17" value="11"/>
    <field name="ip.checksum" showname="Header checksum: 0x00fa [correct]" size="2" pos="24" show="0x00fa" value="00fa">
      <field name="ip.checksum_good" showname="Good: True" size="2" pos="24" show="1" value="00fa"/>
      <field name="ip.checksum_bad" showname="Bad: False" size="2" pos="24" show="0" value="00fa"/>
    </field>
    <field name="ip.src" showname="Source: 192.168.151.61 (192.168.151.61)" size="4" pos="26" show="192.168.151.61" value="c0a8973d"/>
    <field name="ip.addr" showname="Source or Destination Address: 192.168.151.61 (192.168.151.61)" hide="yes" size="4" pos="26" show="192.168.151.61" value="c0a8973d"/>
    <field name="ip.src_host" showname="Source Host: 192.168.151.61" hide="yes" size="4" pos="26" show="192.168.151.61" value="c0a8973d"/>
    <field name="ip.host" showname="Source or Destination Host: 192.168.151.61" hide="yes" size="4" pos="26" show="192.168.151.61" value="c0a8973d"/>
    <field name="ip.dst" showname="Destination: 239.192.48.80 (239.192.48.80)" size="4" pos="30" show="239.192.48.80" value="efc03050"/>
    <field name="ip.addr" showname="Source or Destination Address: 239.192.48.80 (239.192.48.80)" hide="yes" size="4" pos="30" show="239.192.48.80" value="efc03050"/>
    <field name="ip.dst_host" showname="Destination Host: 239.192.48.80" hide="yes" size="4" pos="30" show="239.192.48.80" value="efc03050"/>
    <field name="ip.host" showname="Source or Destination Host: 239.192.48.80" hide="yes" size="4" pos="30" show="239.192.48.80" value="efc03050"/>
  </proto>
  <proto name="udp" showname="User Datagram Protocol, Src Port: hpoms-dps-lstn (5404), Dst Port: netsupport (5405)" size="8" pos="34">
    <field name="udp.srcport" showname="Source port: hpoms-dps-lstn (5404)" size="2" pos="34" show="5404" value="151c"/>
    <field name="udp.dstport" showname="Destination port: netsupport (5405)" size="2" pos="36" show="5405" value="151d"/>
    <field name="udp.port" showname="Source or Destination Port: 5404" hide="yes" size="2" pos="34" show="5404" value="151c"/>
    <field name="udp.port" showname="Source or Destination Port: 5405" hide="yes" size="2" pos="36" show="5405" value="151d"/>
    <field name="udp.length" showname="Length: 233" size="2" pos="38" show="233" value="00e9"/>
    <field name="udp.checksum_coverage" showname="Checksum coverage: 233" hide="yes" size="0" pos="38" show="233"/>
    <field name="udp.checksum" showname="Checksum: 0x14ef [validation disabled]" size="2" pos="40" show="0x14ef" value="14ef">
      <field name="udp.checksum_good" showname="Good Checksum: False" size="2" pos="40" show="0" value="14ef"/>
      <field name="udp.checksum_bad" showname="Bad Checksum: False" size="2" pos="40" show="0" value="14ef"/>
    </field>
  </proto>
  <proto name="corosync_totemnet" showname="Totemnet Layer of Corosync Cluster Engine" size="224" pos="0">
    <field name="corosync_totemnet.security_header_hash_digest" showname="Hash digest: 17e65f3f3db8f70f03c60363bb0059ded6c7ae41" size="20" pos="0" show="17:e6:5f:3f:3d:b8:f7:0f:03:c6:03:63:bb:00:59:de:d6:c7:ae:41" value="17e65f3f3db8f70f03c60363bb0059ded6c7ae41"/>
    <field name="corosync_totemnet.security_header_salt" showname="Salt: ea6a88a320d1145a113d5281f885aa41" size="16" pos="20" show="ea:6a:88:a3:20:d1:14:5a:11:3d:52:81:f8:85:aa:41" value="ea6a88a320d1145a113d5281f885aa41"/>
    <field name="corosync_totemnet.security_crypto_type" showname="Cryptographic Type: SOBER (0)" size="1" pos="223" show="0" value="00"/>
    <field name="corosync_totemnet.security_crypto_key" showname="alpha" size="0" pos="0" show="" value=""/>
  </proto>
  <proto name="corosync_totemsrp" showname="Totem Single Ring Protocol implemented in Corosync Cluster Engine" size="188" pos="36">
    <field name="corosync_totemsrp.message_header.type" showname="Type: mcast (1)" size="1" pos="36" show="1" value="01"/>
    <field name="corosync_totemsrp.message_header.encapsulated" showname="Encapsulated: not encapsulated (2)" size="1" pos="37" show="2" value="02"/>
    <field name="corosync_totemsrp.message_header.endian_detector" showname="Endian detector: 0xff22" size="2" pos="38" show="0xff22" value="22ff"/>
    <field name="corosync_totemsrp.message_header.nodeid" showname="Node ID: 1" size="4" pos="40" show="1" value="01000000"/>
    <field name="corosync_totemsrp.mcast" showname="ring ordered multicast message" size="180" pos="44" show="" value="">
      <field name="corosync_totemsrp.mcast.system_from" showname="System from address" size="44" pos="44" show="" value="">
        <field name="corosync_totemsrp.ip_address" showname="Node IP address (interface: 0; node: 1)" size="22" pos="44" show="" value="">
          <field name="corosync_totemsrp.ip_address.nodeid" showname="Node ID: 1" size="4" pos="44" show="1" value="01000000"/>
          <field name="corosync_totemsrp.ip_address.family" showname="Address family: AF_INET (2)" size="2" pos="48" show="2" value="0200"/>
          <field name="corosync_totemsrp.ip_address.addr4" showname="Address: 192.168.151.61 (192.168.151.61)" size="4" pos="50" show="192.168.151.61" value="c0a8973d"/>
          <field name="corosync_totemsrp.ip_address.addr4_padding" showname="Address padding: 08000200c0a8973d08000400" size="12" pos="54" show="08:00:02:00:c0:a8:97:3d:08:00:04:00" value="08000200c0a8973d08000400"/>
        </field>
        <field name="corosync_totemsrp.ip_address" showname="Node IP address (interface: 1; node: 0)" size="22" pos="66" show="" value="">
          <field name="corosync_totemsrp.ip_address.nodeid" showname="Node ID: 0" size="4" pos="66" show="0" value="00000000"/>
          <field name="corosync_totemsrp.ip_address.family" showname="Address family: Unknown (0)" size="2" pos="70" show="0" value="0000"/>
          <field name="corosync_totemsrp.ip_address.addr" showname="Address: 00000000000000000000000000000000" size="16" pos="72" show="00:00:00:00:00:00:00:00:00:00:00:00:00:00:00:00" value="00000000000000000000000000000000"/>
        </field>
      </field>
      <field name="corosync_totemsrp.mcast.seq" showname="Multicast sequence number: 184" size="4" pos="88" show="184" value="b8000000"/>
      <field name="corosync_totemsrp.mcast.this_seqno" showname="This Sequence number: 108" size="4" pos="92" show="108" value="6c000000"/>
      <field name="corosync_totemsrp.memb_ring_id" showname="Member ring id (node: 1)" size="30" pos="96" show="" value="">
        <field name="corosync_totemsrp.ip_address" showname="Node IP address (node: 1)" size="22" pos="96" show="" value="">
          <field name="corosync_totemsrp.ip_address.nodeid" showname="Node ID: 1" size="4" pos="96" show="1" value="01000000"/>
          <field name="corosync_totemsrp.ip_address.family" showname="Address family: AF_INET (2)" size="2" pos="100" show="2" value="0200"/>
          <field name="corosync_totemsrp.ip_address.addr4" showname="Address: 192.168.151.61 (192.168.151.61)" size="4" pos="102" show="192.168.151.61" value="c0a8973d"/>
          <field name="corosync_totemsrp.ip_address.addr4_padding" showname="Address padding: 08000200c0a8973d08000400" size="12" pos="106" show="08:00:02:00:c0:a8:97:3d:08:00:04:00" value="08000200c0a8973d08000400"/>
        </field>
        <field name="corosync_totemsrp.memb_ring_id.seq" showname="Squence in member ring id: 30000" size="8" pos="118" show="30000" value="3075000000000000"/>
      </field>
      <field name="corosync_totemsrp.mcast.node_id" showname="Node id(unused?): 0" size="4" pos="126" show="0" value="00000000"/>
      <field name="corosync_totemsrp.mcast.guarantee" showname="Guarantee: 0" size="4" pos="130" show="0" value="00000000"/>
    </field>
  </proto>
  <proto name="corosync_totempg" showname="Process Group Layer of Corosync Cluster Engine" size="90" pos="134">
    <field name="corosync_totempg.mcast_header" showname="Multicast packet header" size="4" pos="134" show="" value="">
      <field name="corosync_totempg.mcast_header.version" showname="Version: 0" size="2" pos="134" show="0" value="0000"/>
      <field name="corosync_totempg.mcast_header.type" showname="Type: 444" size="2" pos="136" show="444" value="bc01"/>
    </field>
    <field name="corosync_totempg.fragmented" showname="Fragment flag: 0" size="1" pos="138" show="0" value="00"/>
    <field name="corosync_totempg.continuation" showname="Continuation flag: 0" size="1" pos="139" show="0" value="00"/>
    <field name="corosync_totempg.msg_count" showname="Count of messages: 1" size="2" pos="140" show="1" value="0100"/>
    <field name="corosync_totempg.msg_len" showname="Length of message: 80 (msg index: 0)" size="2" pos="142" show="80" value="5000"/>
    <field name="corosync_totempg.mcast_message" showname="Multicast packet message (msg index: 0)" size="80" pos="144" show="" value="">
      <field name="corosync_totempg.group_count" showname="Group count: 1" size="2" pos="144" show="1" value="0100"/>
      <field name="corosync_totempg.group_len" showname="Length of group name: 4 (group index: 0)" size="2" pos="146" show="4" value="0400"/>
      <field name="corosync_totempg.group_name" showname="Group name: CMAN (group index: 0)" size="4" pos="148" show="CMAN" value="434d414e"/>
      <proto name="openais_cman" showname="Cman running on OpenAIS" size="72" pos="152">
        <field name="openais_cman.tgtport" showname="Target port number: 177 (RGMANAGER)" size="1" pos="152" show="177" value="b1"/>
        <field name="openais_cman.srcport" showname="Source port number: 177" size="1" pos="153" show="177" value="b1"/>
        <field name="openais_cman.pad" showname="Padding: 62395" size="2" pos="154" show="62395" value="bbf3"/>
        <field name="openais_cman.flags" showname="Flags: 0" size="4" pos="156" show="0" value="00000000"/>
        <field name="openais_cman.srcid" showname="Source node id: 1" size="4" pos="160" show="1" value="01000000"/>
        <field name="openais_cman.tgtid" showname="Target node id: 0 (whole cluster)" size="4" pos="164" show="0" value="00000000"/>
        <proto name="rgmanager" showname="Resource group manager" size="56" pos="168">
          <field name="rgmanager.cluster_msg_header.src_ctx" showname="Source context: 2" size="4" pos="168" show="2" value="00000002"/>
          <field name="rgmanager.cluster_msg_header.src_nodeid" showname="Source node id: 1" size="4" pos="172" show="1" value="00000001"/>
          <field name="rgmanager.cluster_msg_header.dest_ctx" showname="Destination context: 0 (broadcast)" size="4" pos="176" show="0" value="00000000"/>
          <field name="rgmanager.cluster_msg_header.dest_nodeid" showname="Destination node id: 0" size="4" pos="180" show="0" value="00000000"/>
          <field name="rgmanager.cluster_msg_header.msg_contorol" showname="Message contorol: data (4)" size="1" pos="184" show="4" value="04"/>
          <field name="rgmanager.cluster_msg_header.msg_port" showname="Message port: 177" size="1" pos="185" show="177" value="b1"/>
          <field name="rgmanager.cluster_msg_header.pad" showname="Padding: 0x8600" size="2" pos="186" show="0x8600" value="8600"/>
          <field name="rgmanager.cluster_msg_header.reserved" showname="Reserved: 000000007011000ce37f0000" size="12" pos="188" show="00:00:00:00:70:11:00:0c:e3:7f:00:00" value="000000007011000ce37f0000"/>
          <field name="rgmanager.generic_msg_hdr.magic" showname="Magic: version 0 (0x123abc00)" size="4" pos="200" show="0x123abc00" value="123abc00"/>
          <field name="rgmanager.generic_msg_hdr.length" showname="Length: 24" size="4" pos="204" show="24" value="00000018"/>
          <field name="rgmanager.generic_msg_hdr.command" showname="Command: view formation message (0x00003000)" size="4" pos="208" show="0x00003000" value="00003000"/>
          <field name="rgmanager.generic_msg_hdr.vf_command" showname="View formation command holder: 0x00013002, VF command: vote, VF flags: affirm" size="4" pos="212" show="0x00013002" value="00013002">
            <field name="rgmanager.vf_command" showname=".... .... .... .... 0011 0000 0000 0010 = VF command: vote (0x00003002)" size="4" pos="212" show="0x00003002" value="3002" unmaskedvalue="00013002"/>
            <field name="rgmanager.vf_flags" showname="0000 0000 0000 0001 .... .... .... .... = VF flags: affirm (0x00000001)" size="4" pos="212" show="0x00000001" value="1" unmaskedvalue="00013002"/>
          </field>
          <field name="rgmanager.generic_msg_hdr.vf_trans" showname="View formed transaction: 0x00010004" size="4" pos="216" show="0x00010004" value="00010004"/>
          <field name="rgmanager.generic_msg_hdr.arg3" showname="Arguement 3: 0 (unused)" size="4" pos="220" show="0" value="00000000"/>
        </proto>
      </proto>
    </field>
  </proto>
</packet>


<packet>
  <proto name="geninfo" pos="0" showname="General information" size="267">
    <field name="num" pos="0" show="9" showname="Number" value="9" size="267"/>
    <field name="len" pos="0" show="267" showname="Frame Length" value="10b" size="267"/>
    <field name="caplen" pos="0" show="267" showname="Captured Length" value="10b" size="267"/>
    <field name="timestamp" pos="0" show="Oct 23, 2011 18:27:07.175760000 JST" showname="Captured Time" value="1319362027.175760000" size="267"/>
  </proto>
  <proto name="frame" showname="Frame 9: 267 bytes on wire (2136 bits), 267 bytes captured (2136 bits)" size="267" pos="0">
    <field name="frame.time" showname="Arrival Time: Oct 23, 2011 18:27:07.175760000 JST" size="0" pos="0" show="Oct 23, 2011 18:27:07.175760000"/>
    <field name="frame.time_epoch" showname="Epoch Time: 1319362027.175760000 seconds" size="0" pos="0" show="1319362027.175760000"/>
    <field name="frame.time_delta" showname="Time delta from previous captured frame: 0.001515000 seconds" size="0" pos="0" show="0.001515000"/>
    <field name="frame.time_delta_displayed" showname="Time delta from previous displayed frame: 0.001515000 seconds" size="0" pos="0" show="0.001515000"/>
    <field name="frame.time_relative" showname="Time since reference or first frame: 1.567006000 seconds" size="0" pos="0" show="1.567006000"/>
    <field name="frame.number" showname="Frame Number: 9" size="0" pos="0" show="9"/>
    <field name="frame.len" showname="Frame Length: 267 bytes (2136 bits)" size="0" pos="0" show="267"/>
    <field name="frame.cap_len" showname="Capture Length: 267 bytes (2136 bits)" size="0" pos="0" show="267"/>
    <field name="frame.marked" showname="Frame is marked: False" size="0" pos="0" show="0"/>
    <field name="frame.ignored" showname="Frame is ignored: False" size="0" pos="0" show="0"/>
    <field name="frame.protocols" showname="Protocols in frame: eth:ip:udp:corosync_totemnet:corosync_totempg:openais_cman:rgmanager" size="0" pos="0" show="eth:ip:udp:corosync_totemnet:corosync_totempg:openais_cman:rgmanager"/>
  </proto>
  <proto name="eth" showname="Ethernet II, Src: 54:52:00:01:00:61 (54:52:00:01:00:61), Dst: IPv4mcast_40:30:50 (01:00:5e:40:30:50)" size="14" pos="0">
    <field name="eth.dst" showname="Destination: IPv4mcast_40:30:50 (01:00:5e:40:30:50)" size="6" pos="0" show="01:00:5e:40:30:50" value="01005e403050">
      <field name="eth.addr" showname="Address: IPv4mcast_40:30:50 (01:00:5e:40:30:50)" size="6" pos="0" show="01:00:5e:40:30:50" value="01005e403050"/>
      <field name="eth.ig" showname=".... ...1 .... .... .... .... = IG bit: Group address (multicast/broadcast)" size="3" pos="0" show="1" value="1" unmaskedvalue="01005e"/>
      <field name="eth.lg" showname=".... ..0. .... .... .... .... = LG bit: Globally unique address (factory default)" size="3" pos="0" show="0" value="0" unmaskedvalue="01005e"/>
    </field>
    <field name="eth.src" showname="Source: 54:52:00:01:00:61 (54:52:00:01:00:61)" size="6" pos="6" show="54:52:00:01:00:61" value="545200010061">
      <field name="eth.addr" showname="Address: 54:52:00:01:00:61 (54:52:00:01:00:61)" size="6" pos="6" show="54:52:00:01:00:61" value="545200010061"/>
      <field name="eth.ig" showname=".... ...0 .... .... .... .... = IG bit: Individual address (unicast)" size="3" pos="6" show="0" value="0" unmaskedvalue="545200"/>
      <field name="eth.lg" showname=".... ..0. .... .... .... .... = LG bit: Globally unique address (factory default)" size="3" pos="6" show="0" value="0" unmaskedvalue="545200"/>
    </field>
    <field name="eth.type" showname="Type: IP (0x0800)" size="2" pos="12" show="0x0800" value="0800"/>
  </proto>
  <proto name="ip" showname="Internet Protocol Version 4, Src: 192.168.151.61 (192.168.151.61), Dst: 239.192.48.80 (239.192.48.80)" size="20" pos="14">
    <field name="ip.version" showname="Version: 4" size="1" pos="14" show="4" value="45"/>
    <field name="ip.hdr_len" showname="Header length: 20 bytes" size="1" pos="14" show="20" value="45"/>
    <field name="ip.dsfield" showname="Differentiated Services Field: 0x00 (DSCP 0x00: Default; ECN: 0x00: Not-ECT (Not ECN-Capable Transport))" size="1" pos="15" show="0" value="00">
      <field name="ip.dsfield.dscp" showname="0000 00.. = Differentiated Services Codepoint: Default (0x00)" size="1" pos="15" show="0x00" value="0" unmaskedvalue="00"/>
      <field name="ip.dsfield.ecn" showname=".... ..00 = Explicit Congestion Notification: Not-ECT (Not ECN-Capable Transport) (0x00)" size="1" pos="15" show="0x00" value="0" unmaskedvalue="00"/>
    </field>
    <field name="ip.len" showname="Total Length: 253" size="2" pos="16" show="253" value="00fd"/>
    <field name="ip.id" showname="Identification: 0x0000 (0)" size="2" pos="18" show="0x0000" value="0000"/>
    <field name="ip.flags" showname="Flags: 0x02 (Don&apos;t Fragment)" size="1" pos="20" show="0x02" value="40">
      <field name="ip.flags.rb" showname="0... .... = Reserved bit: Not set" size="1" pos="20" show="0" value="40"/>
      <field name="ip.flags.df" showname=".1.. .... = Don&apos;t fragment: Set" size="1" pos="20" show="1" value="40"/>
      <field name="ip.flags.mf" showname="..0. .... = More fragments: Not set" size="1" pos="20" show="0" value="40"/>
    </field>
    <field name="ip.frag_offset" showname="Fragment offset: 0" size="2" pos="20" show="0" value="4000"/>
    <field name="ip.ttl" showname="Time to live: 1" size="1" pos="22" show="1" value="01"/>
    <field name="ip.proto" showname="Protocol: UDP (17)" size="1" pos="23" show="17" value="11"/>
    <field name="ip.checksum" showname="Header checksum: 0x00fa [correct]" size="2" pos="24" show="0x00fa" value="00fa">
      <field name="ip.checksum_good" showname="Good: True" size="2" pos="24" show="1" value="00fa"/>
      <field name="ip.checksum_bad" showname="Bad: False" size="2" pos="24" show="0" value="00fa"/>
    </field>
    <field name="ip.src" showname="Source: 192.168.151.61 (192.168.151.61)" size="4" pos="26" show="192.168.151.61" value="c0a8973d"/>
    <field name="ip.addr" showname="Source or Destination Address: 192.168.151.61 (192.168.151.61)" hide="yes" size="4" pos="26" show="192.168.151.61" value="c0a8973d"/>
    <field name="ip.src_host" showname="Source Host: 192.168.151.61" hide="yes" size="4" pos="26" show="192.168.151.61" value="c0a8973d"/>
    <field name="ip.host" showname="Source or Destination Host: 192.168.151.61" hide="yes" size="4" pos="26" show="192.168.151.61" value="c0a8973d"/>
    <field name="ip.dst" showname="Destination: 239.192.48.80 (239.192.48.80)" size="4" pos="30" show="239.192.48.80" value="efc03050"/>
    <field name="ip.addr" showname="Source or Destination Address: 239.192.48.80 (239.192.48.80)" hide="yes" size="4" pos="30" show="239.192.48.80" value="efc03050"/>
    <field name="ip.dst_host" showname="Destination Host: 239.192.48.80" hide="yes" size="4" pos="30" show="239.192.48.80" value="efc03050"/>
    <field name="ip.host" showname="Source or Destination Host: 239.192.48.80" hide="yes" size="4" pos="30" show="239.192.48.80" value="efc03050"/>
  </proto>
  <proto name="udp" showname="User Datagram Protocol, Src Port: hpoms-dps-lstn (5404), Dst Port: netsupport (5405)" size="8" pos="34">
    <field name="udp.srcport" showname="Source port: hpoms-dps-lstn (5404)" size="2" pos="34" show="5404" value="151c"/>
    <field name="udp.dstport" showname="Destination port: netsupport (5405)" size="2" pos="36" show="5405" value="151d"/>
    <field name="udp.port" showname="Source or Destination Port: 5404" hide="yes" size="2" pos="34" show="5404" value="151c"/>
    <field name="udp.port" showname="Source or Destination Port: 5405" hide="yes" size="2" pos="36" show="5405" value="151d"/>
    <field name="udp.length" showname="Length: 233" size="2" pos="38" show="233" value="00e9"/>
    <field name="udp.checksum_coverage" showname="Checksum coverage: 233" hide="yes" size="0" pos="38" show="233"/>
    <field name="udp.checksum" showname="Checksum: 0x3e02 [validation disabled]" size="2" pos="40" show="0x3e02" value="3e02">
      <field name="udp.checksum_good" showname="Good Checksum: False" size="2" pos="40" show="0" value="3e02"/>
      <field name="udp.checksum_bad" showname="Bad Checksum: False" size="2" pos="40" show="0" value="3e02"/>
    </field>
  </proto>
  <proto name="corosync_totemnet" showname="Totemnet Layer of Corosync Cluster Engine" size="224" pos="0">
    <field name="corosync_totemnet.security_header_hash_digest" showname="Hash digest: 7d7acbce12703326afc02d290bc6723498f19150" size="20" pos="0" show="7d:7a:cb:ce:12:70:33:26:af:c0:2d:29:0b:c6:72:34:98:f1:91:50" value="7d7acbce12703326afc02d290bc6723498f19150"/>
    <field name="corosync_totemnet.security_header_salt" showname="Salt: ccb6ad4ddbbcd01542ca754cfc19abf8" size="16" pos="20" show="cc:b6:ad:4d:db:bc:d0:15:42:ca:75:4c:fc:19:ab:f8" value="ccb6ad4ddbbcd01542ca754cfc19abf8"/>
    <field name="corosync_totemnet.security_crypto_type" showname="Cryptographic Type: SOBER (0)" size="1" pos="223" show="0" value="00"/>
    <field name="corosync_totemnet.security_crypto_key" showname="alpha" size="0" pos="0" show="" value=""/>
  </proto>
  <proto name="corosync_totemsrp" showname="Totem Single Ring Protocol implemented in Corosync Cluster Engine" size="188" pos="36">
    <field name="corosync_totemsrp.message_header.type" showname="Type: mcast (1)" size="1" pos="36" show="1" value="01"/>
    <field name="corosync_totemsrp.message_header.encapsulated" showname="Encapsulated: not encapsulated (2)" size="1" pos="37" show="2" value="02"/>
    <field name="corosync_totemsrp.message_header.endian_detector" showname="Endian detector: 0xff22" size="2" pos="38" show="0xff22" value="22ff"/>
    <field name="corosync_totemsrp.message_header.nodeid" showname="Node ID: 1" size="4" pos="40" show="1" value="01000000"/>
    <field name="corosync_totemsrp.mcast" showname="ring ordered multicast message" size="180" pos="44" show="" value="">
      <field name="corosync_totemsrp.mcast.system_from" showname="System from address" size="44" pos="44" show="" value="">
        <field name="corosync_totemsrp.ip_address" showname="Node IP address (interface: 0; node: 1)" size="22" pos="44" show="" value="">
          <field name="corosync_totemsrp.ip_address.nodeid" showname="Node ID: 1" size="4" pos="44" show="1" value="01000000"/>
          <field name="corosync_totemsrp.ip_address.family" showname="Address family: AF_INET (2)" size="2" pos="48" show="2" value="0200"/>
          <field name="corosync_totemsrp.ip_address.addr4" showname="Address: 192.168.151.61 (192.168.151.61)" size="4" pos="50" show="192.168.151.61" value="c0a8973d"/>
          <field name="corosync_totemsrp.ip_address.addr4_padding" showname="Address padding: 08000200c0a8973d08000400" size="12" pos="54" show="08:00:02:00:c0:a8:97:3d:08:00:04:00" value="08000200c0a8973d08000400"/>
        </field>
        <field name="corosync_totemsrp.ip_address" showname="Node IP address (interface: 1; node: 0)" size="22" pos="66" show="" value="">
          <field name="corosync_totemsrp.ip_address.nodeid" showname="Node ID: 0" size="4" pos="66" show="0" value="00000000"/>
          <field name="corosync_totemsrp.ip_address.family" showname="Address family: Unknown (0)" size="2" pos="70" show="0" value="0000"/>
          <field name="corosync_totemsrp.ip_address.addr" showname="Address: 00000000000000000000000000000000" size="16" pos="72" show="00:00:00:00:00:00:00:00:00:00:00:00:00:00:00:00" value="00000000000000000000000000000000"/>
        </field>
      </field>
      <field name="corosync_totemsrp.mcast.seq" showname="Multicast sequence number: 185" size="4" pos="88" show="185" value="b9000000"/>
      <field name="corosync_totemsrp.mcast.this_seqno" showname="This Sequence number: 109" size="4" pos="92" show="109" value="6d000000"/>
      <field name="corosync_totemsrp.memb_ring_id" showname="Member ring id (node: 1)" size="30" pos="96" show="" value="">
        <field name="corosync_totemsrp.ip_address" showname="Node IP address (node: 1)" size="22" pos="96" show="" value="">
          <field name="corosync_totemsrp.ip_address.nodeid" showname="Node ID: 1" size="4" pos="96" show="1" value="01000000"/>
          <field name="corosync_totemsrp.ip_address.family" showname="Address family: AF_INET (2)" size="2" pos="100" show="2" value="0200"/>
          <field name="corosync_totemsrp.ip_address.addr4" showname="Address: 192.168.151.61 (192.168.151.61)" size="4" pos="102" show="192.168.151.61" value="c0a8973d"/>
          <field name="corosync_totemsrp.ip_address.addr4_padding" showname="Address padding: 08000200c0a8973d08000400" size="12" pos="106" show="08:00:02:00:c0:a8:97:3d:08:00:04:00" value="08000200c0a8973d08000400"/>
        </field>
        <field name="corosync_totemsrp.memb_ring_id.seq" showname="Squence in member ring id: 30000" size="8" pos="118" show="30000" value="3075000000000000"/>
      </field>
      <field name="corosync_totemsrp.mcast.node_id" showname="Node id(unused?): 0" size="4" pos="126" show="0" value="00000000"/>
      <field name="corosync_totemsrp.mcast.guarantee" showname="Guarantee: 0" size="4" pos="130" show="0" value="00000000"/>
    </field>
  </proto>
  <proto name="corosync_totempg" showname="Process Group Layer of Corosync Cluster Engine" size="90" pos="134">
    <field name="corosync_totempg.mcast_header" showname="Multicast packet header" size="4" pos="134" show="" value="">
      <field name="corosync_totempg.mcast_header.version" showname="Version: 0" size="2" pos="134" show="0" value="0000"/>
      <field name="corosync_totempg.mcast_header.type" showname="Type: 444" size="2" pos="136" show="444" value="bc01"/>
    </field>
    <field name="corosync_totempg.fragmented" showname="Fragment flag: 0" size="1" pos="138" show="0" value="00"/>
    <field name="corosync_totempg.continuation" showname="Continuation flag: 0" size="1" pos="139" show="0" value="00"/>
    <field name="corosync_totempg.msg_count" showname="Count of messages: 1" size="2" pos="140" show="1" value="0100"/>
    <field name="corosync_totempg.msg_len" showname="Length of message: 80 (msg index: 0)" size="2" pos="142" show="80" value="5000"/>
    <field name="corosync_totempg.mcast_message" showname="Multicast packet message (msg index: 0)" size="80" pos="144" show="" value="">
      <field name="corosync_totempg.group_count" showname="Group count: 1" size="2" pos="144" show="1" value="0100"/>
      <field name="corosync_totempg.group_len" showname="Length of group name: 4 (group index: 0)" size="2" pos="146" show="4" value="0400"/>
      <field name="corosync_totempg.group_name" showname="Group name: CMAN (group index: 0)" size="4" pos="148" show="CMAN" value="434d414e"/>
      <proto name="openais_cman" showname="Cman running on OpenAIS" size="72" pos="152">
        <field name="openais_cman.tgtport" showname="Target port number: 177 (RGMANAGER)" size="1" pos="152" show="177" value="b1"/>
        <field name="openais_cman.srcport" showname="Source port number: 177" size="1" pos="153" show="177" value="b1"/>
        <field name="openais_cman.pad" showname="Padding: 62395" size="2" pos="154" show="62395" value="bbf3"/>
        <field name="openais_cman.flags" showname="Flags: 0" size="4" pos="156" show="0" value="00000000"/>
        <field name="openais_cman.srcid" showname="Source node id: 1" size="4" pos="160" show="1" value="01000000"/>
        <field name="openais_cman.tgtid" showname="Target node id: 0 (whole cluster)" size="4" pos="164" show="0" value="00000000"/>
        <proto name="rgmanager" showname="Resource group manager" size="56" pos="168">
          <field name="rgmanager.cluster_msg_header.src_ctx" showname="Source context: 7" size="4" pos="168" show="7" value="00000007"/>
          <field name="rgmanager.cluster_msg_header.src_nodeid" showname="Source node id: 1" size="4" pos="172" show="1" value="00000001"/>
          <field name="rgmanager.cluster_msg_header.dest_ctx" showname="Destination context: 0 (broadcast)" size="4" pos="176" show="0" value="00000000"/>
          <field name="rgmanager.cluster_msg_header.dest_nodeid" showname="Destination node id: 0" size="4" pos="180" show="0" value="00000000"/>
          <field name="rgmanager.cluster_msg_header.msg_contorol" showname="Message contorol: data (4)" size="1" pos="184" show="4" value="04"/>
          <field name="rgmanager.cluster_msg_header.msg_port" showname="Message port: 177" size="1" pos="185" show="177" value="b1"/>
          <field name="rgmanager.cluster_msg_header.pad" showname="Padding: 0x0000" size="2" pos="186" show="0x0000" value="0000"/>
          <field name="rgmanager.cluster_msg_header.reserved" showname="Reserved: 00000000b1000000e37f0000" size="12" pos="188" show="00:00:00:00:b1:00:00:00:e3:7f:00:00" value="00000000b1000000e37f0000"/>
          <field name="rgmanager.generic_msg_hdr.magic" showname="Magic: version 0 (0x123abc00)" size="4" pos="200" show="0x123abc00" value="123abc00"/>
          <field name="rgmanager.generic_msg_hdr.length" showname="Length: 24" size="4" pos="204" show="24" value="00000018"/>
          <field name="rgmanager.generic_msg_hdr.command" showname="Command: view formation message (0x00003000)" size="4" pos="208" show="0x00003000" value="00003000"/>
          <field name="rgmanager.generic_msg_hdr.vf_command" showname="View formation command holder: 0x00003005, VF command: view formed, VF flags: Unknown" size="4" pos="212" show="0x00003005" value="00003005">
            <field name="rgmanager.vf_command" showname=".... .... .... .... 0011 0000 0000 0101 = VF command: view formed (0x00003005)" size="4" pos="212" show="0x00003005" value="3005" unmaskedvalue="00003005"/>
            <field name="rgmanager.vf_flags" showname="0000 0000 0000 0000 .... .... .... .... = VF flags: Unknown (0x00000000)" size="4" pos="212" show="0x00000000" value="0" unmaskedvalue="00003005"/>
          </field>
          <field name="rgmanager.generic_msg_hdr.vf_trans" showname="View formed transaction: 0x00010004" size="4" pos="216" show="0x00010004" value="00010004"/>
          <field name="rgmanager.generic_msg_hdr.arg3" showname="Arguement 3: 0 (unused)" size="4" pos="220" show="0" value="00000000"/>
        </proto>
      </proto>
    </field>
  </proto>
</packet>


<packet>
  <proto name="geninfo" pos="0" showname="General information" size="451">
    <field name="num" pos="0" show="10" showname="Number" value="a" size="451"/>
    <field name="len" pos="0" show="451" showname="Frame Length" value="1c3" size="451"/>
    <field name="caplen" pos="0" show="451" showname="Captured Length" value="1c3" size="451"/>
    <field name="timestamp" pos="0" show="Oct 23, 2011 18:27:07.223112000 JST" showname="Captured Time" value="1319362027.223112000" size="451"/>
  </proto>
  <proto name="frame" showname="Frame 10: 451 bytes on wire (3608 bits), 451 bytes captured (3608 bits)" size="451" pos="0">
    <field name="frame.time" showname="Arrival Time: Oct 23, 2011 18:27:07.223112000 JST" size="0" pos="0" show="Oct 23, 2011 18:27:07.223112000"/>
    <field name="frame.time_epoch" showname="Epoch Time: 1319362027.223112000 seconds" size="0" pos="0" show="1319362027.223112000"/>
    <field name="frame.time_delta" showname="Time delta from previous captured frame: 0.047352000 seconds" size="0" pos="0" show="0.047352000"/>
    <field name="frame.time_delta_displayed" showname="Time delta from previous displayed frame: 0.047352000 seconds" size="0" pos="0" show="0.047352000"/>
    <field name="frame.time_relative" showname="Time since reference or first frame: 1.614358000 seconds" size="0" pos="0" show="1.614358000"/>
    <field name="frame.number" showname="Frame Number: 10" size="0" pos="0" show="10"/>
    <field name="frame.len" showname="Frame Length: 451 bytes (3608 bits)" size="0" pos="0" show="451"/>
    <field name="frame.cap_len" showname="Capture Length: 451 bytes (3608 bits)" size="0" pos="0" show="451"/>
    <field name="frame.marked" showname="Frame is marked: False" size="0" pos="0" show="0"/>
    <field name="frame.ignored" showname="Frame is ignored: False" size="0" pos="0" show="0"/>
    <field name="frame.protocols" showname="Protocols in frame: eth:ip:udp:corosync_totemnet:corosync_totempg:openais_cman:rgmanager" size="0" pos="0" show="eth:ip:udp:corosync_totemnet:corosync_totempg:openais_cman:rgmanager"/>
  </proto>
  <proto name="eth" showname="Ethernet II, Src: 54:52:00:01:00:61 (54:52:00:01:00:61), Dst: IPv4mcast_40:30:50 (01:00:5e:40:30:50)" size="14" pos="0">
    <field name="eth.dst" showname="Destination: IPv4mcast_40:30:50 (01:00:5e:40:30:50)" size="6" pos="0" show="01:00:5e:40:30:50" value="01005e403050">
      <field name="eth.addr" showname="Address: IPv4mcast_40:30:50 (01:00:5e:40:30:50)" size="6" pos="0" show="01:00:5e:40:30:50" value="01005e403050"/>
      <field name="eth.ig" showname=".... ...1 .... .... .... .... = IG bit: Group address (multicast/broadcast)" size="3" pos="0" show="1" value="1" unmaskedvalue="01005e"/>
      <field name="eth.lg" showname=".... ..0. .... .... .... .... = LG bit: Globally unique address (factory default)" size="3" pos="0" show="0" value="0" unmaskedvalue="01005e"/>
    </field>
    <field name="eth.src" showname="Source: 54:52:00:01:00:61 (54:52:00:01:00:61)" size="6" pos="6" show="54:52:00:01:00:61" value="545200010061">
      <field name="eth.addr" showname="Address: 54:52:00:01:00:61 (54:52:00:01:00:61)" size="6" pos="6" show="54:52:00:01:00:61" value="545200010061"/>
      <field name="eth.ig" showname=".... ...0 .... .... .... .... = IG bit: Individual address (unicast)" size="3" pos="6" show="0" value="0" unmaskedvalue="545200"/>
      <field name="eth.lg" showname=".... ..0. .... .... .... .... = LG bit: Globally unique address (factory default)" size="3" pos="6" show="0" value="0" unmaskedvalue="545200"/>
    </field>
    <field name="eth.type" showname="Type: IP (0x0800)" size="2" pos="12" show="0x0800" value="0800"/>
  </proto>
  <proto name="ip" showname="Internet Protocol Version 4, Src: 192.168.151.61 (192.168.151.61), Dst: 239.192.48.80 (239.192.48.80)" size="20" pos="14">
    <field name="ip.version" showname="Version: 4" size="1" pos="14" show="4" value="45"/>
    <field name="ip.hdr_len" showname="Header length: 20 bytes" size="1" pos="14" show="20" value="45"/>
    <field name="ip.dsfield" showname="Differentiated Services Field: 0x00 (DSCP 0x00: Default; ECN: 0x00: Not-ECT (Not ECN-Capable Transport))" size="1" pos="15" show="0" value="00">
      <field name="ip.dsfield.dscp" showname="0000 00.. = Differentiated Services Codepoint: Default (0x00)" size="1" pos="15" show="0x00" value="0" unmaskedvalue="00"/>
      <field name="ip.dsfield.ecn" showname=".... ..00 = Explicit Congestion Notification: Not-ECT (Not ECN-Capable Transport) (0x00)" size="1" pos="15" show="0x00" value="0" unmaskedvalue="00"/>
    </field>
    <field name="ip.len" showname="Total Length: 437" size="2" pos="16" show="437" value="01b5"/>
    <field name="ip.id" showname="Identification: 0x0000 (0)" size="2" pos="18" show="0x0000" value="0000"/>
    <field name="ip.flags" showname="Flags: 0x02 (Don&apos;t Fragment)" size="1" pos="20" show="0x02" value="40">
      <field name="ip.flags.rb" showname="0... .... = Reserved bit: Not set" size="1" pos="20" show="0" value="40"/>
      <field name="ip.flags.df" showname=".1.. .... = Don&apos;t fragment: Set" size="1" pos="20" show="1" value="40"/>
      <field name="ip.flags.mf" showname="..0. .... = More fragments: Not set" size="1" pos="20" show="0" value="40"/>
    </field>
    <field name="ip.frag_offset" showname="Fragment offset: 0" size="2" pos="20" show="0" value="4000"/>
    <field name="ip.ttl" showname="Time to live: 1" size="1" pos="22" show="1" value="01"/>
    <field name="ip.proto" showname="Protocol: UDP (17)" size="1" pos="23" show="17" value="11"/>
    <field name="ip.checksum" showname="Header checksum: 0x0042 [correct]" size="2" pos="24" show="0x0042" value="0042">
      <field name="ip.checksum_good" showname="Good: True" size="2" pos="24" show="1" value="0042"/>
      <field name="ip.checksum_bad" showname="Bad: False" size="2" pos="24" show="0" value="0042"/>
    </field>
    <field name="ip.src" showname="Source: 192.168.151.61 (192.168.151.61)" size="4" pos="26" show="192.168.151.61" value="c0a8973d"/>
    <field name="ip.addr" showname="Source or Destination Address: 192.168.151.61 (192.168.151.61)" hide="yes" size="4" pos="26" show="192.168.151.61" value="c0a8973d"/>
    <field name="ip.src_host" showname="Source Host: 192.168.151.61" hide="yes" size="4" pos="26" show="192.168.151.61" value="c0a8973d"/>
    <field name="ip.host" showname="Source or Destination Host: 192.168.151.61" hide="yes" size="4" pos="26" show="192.168.151.61" value="c0a8973d"/>
    <field name="ip.dst" showname="Destination: 239.192.48.80 (239.192.48.80)" size="4" pos="30" show="239.192.48.80" value="efc03050"/>
    <field name="ip.addr" showname="Source or Destination Address: 239.192.48.80 (239.192.48.80)" hide="yes" size="4" pos="30" show="239.192.48.80" value="efc03050"/>
    <field name="ip.dst_host" showname="Destination Host: 239.192.48.80" hide="yes" size="4" pos="30" show="239.192.48.80" value="efc03050"/>
    <field name="ip.host" showname="Source or Destination Host: 239.192.48.80" hide="yes" size="4" pos="30" show="239.192.48.80" value="efc03050"/>
  </proto>
  <proto name="udp" showname="User Datagram Protocol, Src Port: hpoms-dps-lstn (5404), Dst Port: netsupport (5405)" size="8" pos="34">
    <field name="udp.srcport" showname="Source port: hpoms-dps-lstn (5404)" size="2" pos="34" show="5404" value="151c"/>
    <field name="udp.dstport" showname="Destination port: netsupport (5405)" size="2" pos="36" show="5405" value="151d"/>
    <field name="udp.port" showname="Source or Destination Port: 5404" hide="yes" size="2" pos="34" show="5404" value="151c"/>
    <field name="udp.port" showname="Source or Destination Port: 5405" hide="yes" size="2" pos="36" show="5405" value="151d"/>
    <field name="udp.length" showname="Length: 417" size="2" pos="38" show="417" value="01a1"/>
    <field name="udp.checksum_coverage" showname="Checksum coverage: 417" hide="yes" size="0" pos="38" show="417"/>
    <field name="udp.checksum" showname="Checksum: 0xbcd4 [validation disabled]" size="2" pos="40" show="0xbcd4" value="bcd4">
      <field name="udp.checksum_good" showname="Good Checksum: False" size="2" pos="40" show="0" value="bcd4"/>
      <field name="udp.checksum_bad" showname="Bad Checksum: False" size="2" pos="40" show="0" value="bcd4"/>
    </field>
  </proto>
  <proto name="corosync_totemnet" showname="Totemnet Layer of Corosync Cluster Engine" size="408" pos="0">
    <field name="corosync_totemnet.security_header_hash_digest" showname="Hash digest: 95163241f00345f9493b4718be7b0f30c509f439" size="20" pos="0" show="95:16:32:41:f0:03:45:f9:49:3b:47:18:be:7b:0f:30:c5:09:f4:39" value="95163241f00345f9493b4718be7b0f30c509f439"/>
    <field name="corosync_totemnet.security_header_salt" showname="Salt: fa2b2ec48741668e5d4540e22b718494" size="16" pos="20" show="fa:2b:2e:c4:87:41:66:8e:5d:45:40:e2:2b:71:84:94" value="fa2b2ec48741668e5d4540e22b718494"/>
    <field name="corosync_totemnet.security_crypto_type" showname="Cryptographic Type: SOBER (0)" size="1" pos="407" show="0" value="00"/>
    <field name="corosync_totemnet.security_crypto_key" showname="alpha" size="0" pos="0" show="" value=""/>
  </proto>
  <proto name="corosync_totemsrp" showname="Totem Single Ring Protocol implemented in Corosync Cluster Engine" size="372" pos="36">
    <field name="corosync_totemsrp.message_header.type" showname="Type: mcast (1)" size="1" pos="36" show="1" value="01"/>
    <field name="corosync_totemsrp.message_header.encapsulated" showname="Encapsulated: not encapsulated (2)" size="1" pos="37" show="2" value="02"/>
    <field name="corosync_totemsrp.message_header.endian_detector" showname="Endian detector: 0xff22" size="2" pos="38" show="0xff22" value="22ff"/>
    <field name="corosync_totemsrp.message_header.nodeid" showname="Node ID: 1" size="4" pos="40" show="1" value="01000000"/>
    <field name="corosync_totemsrp.mcast" showname="ring ordered multicast message" size="364" pos="44" show="" value="">
      <field name="corosync_totemsrp.mcast.system_from" showname="System from address" size="44" pos="44" show="" value="">
        <field name="corosync_totemsrp.ip_address" showname="Node IP address (interface: 0; node: 1)" size="22" pos="44" show="" value="">
          <field name="corosync_totemsrp.ip_address.nodeid" showname="Node ID: 1" size="4" pos="44" show="1" value="01000000"/>
          <field name="corosync_totemsrp.ip_address.family" showname="Address family: AF_INET (2)" size="2" pos="48" show="2" value="0200"/>
          <field name="corosync_totemsrp.ip_address.addr4" showname="Address: 192.168.151.61 (192.168.151.61)" size="4" pos="50" show="192.168.151.61" value="c0a8973d"/>
          <field name="corosync_totemsrp.ip_address.addr4_padding" showname="Address padding: 08000200c0a8973d08000400" size="12" pos="54" show="08:00:02:00:c0:a8:97:3d:08:00:04:00" value="08000200c0a8973d08000400"/>
        </field>
        <field name="corosync_totemsrp.ip_address" showname="Node IP address (interface: 1; node: 0)" size="22" pos="66" show="" value="">
          <field name="corosync_totemsrp.ip_address.nodeid" showname="Node ID: 0" size="4" pos="66" show="0" value="00000000"/>
          <field name="corosync_totemsrp.ip_address.family" showname="Address family: Unknown (0)" size="2" pos="70" show="0" value="0000"/>
          <field name="corosync_totemsrp.ip_address.addr" showname="Address: 00000000000000000000000000000000" size="16" pos="72" show="00:00:00:00:00:00:00:00:00:00:00:00:00:00:00:00" value="00000000000000000000000000000000"/>
        </field>
      </field>
      <field name="corosync_totemsrp.mcast.seq" showname="Multicast sequence number: 187" size="4" pos="88" show="187" value="bb000000"/>
      <field name="corosync_totemsrp.mcast.this_seqno" showname="This Sequence number: 111" size="4" pos="92" show="111" value="6f000000"/>
      <field name="corosync_totemsrp.memb_ring_id" showname="Member ring id (node: 1)" size="30" pos="96" show="" value="">
        <field name="corosync_totemsrp.ip_address" showname="Node IP address (node: 1)" size="22" pos="96" show="" value="">
          <field name="corosync_totemsrp.ip_address.nodeid" showname="Node ID: 1" size="4" pos="96" show="1" value="01000000"/>
          <field name="corosync_totemsrp.ip_address.family" showname="Address family: AF_INET (2)" size="2" pos="100" show="2" value="0200"/>
          <field name="corosync_totemsrp.ip_address.addr4" showname="Address: 192.168.151.61 (192.168.151.61)" size="4" pos="102" show="192.168.151.61" value="c0a8973d"/>
          <field name="corosync_totemsrp.ip_address.addr4_padding" showname="Address padding: 08000200c0a8973d08000400" size="12" pos="106" show="08:00:02:00:c0:a8:97:3d:08:00:04:00" value="08000200c0a8973d08000400"/>
        </field>
        <field name="corosync_totemsrp.memb_ring_id.seq" showname="Squence in member ring id: 30000" size="8" pos="118" show="30000" value="3075000000000000"/>
      </field>
      <field name="corosync_totemsrp.mcast.node_id" showname="Node id(unused?): 0" size="4" pos="126" show="0" value="00000000"/>
      <field name="corosync_totemsrp.mcast.guarantee" showname="Guarantee: 0" size="4" pos="130" show="0" value="00000000"/>
    </field>
  </proto>
  <proto name="corosync_totempg" showname="Process Group Layer of Corosync Cluster Engine" size="274" pos="134">
    <field name="corosync_totempg.mcast_header" showname="Multicast packet header" size="4" pos="134" show="" value="">
      <field name="corosync_totempg.mcast_header.version" showname="Version: 0" size="2" pos="134" show="0" value="0000"/>
      <field name="corosync_totempg.mcast_header.type" showname="Type: 9757" size="2" pos="136" show="9757" value="1d26"/>
    </field>
    <field name="corosync_totempg.fragmented" showname="Fragment flag: 0" size="1" pos="138" show="0" value="00"/>
    <field name="corosync_totempg.continuation" showname="Continuation flag: 0" size="1" pos="139" show="0" value="00"/>
    <field name="corosync_totempg.msg_count" showname="Count of messages: 1" size="2" pos="140" show="1" value="0100"/>
    <field name="corosync_totempg.msg_len" showname="Length of message: 264 (msg index: 0)" size="2" pos="142" show="264" value="0801"/>
    <field name="corosync_totempg.mcast_message" showname="Multicast packet message (msg index: 0)" size="264" pos="144" show="" value="">
      <field name="corosync_totempg.group_count" showname="Group count: 1" size="2" pos="144" show="1" value="0100"/>
      <field name="corosync_totempg.group_len" showname="Length of group name: 4 (group index: 0)" size="2" pos="146" show="4" value="0400"/>
      <field name="corosync_totempg.group_name" showname="Group name: CMAN (group index: 0)" size="4" pos="148" show="CMAN" value="434d414e"/>
      <proto name="openais_cman" showname="Cman running on OpenAIS" size="256" pos="152">
        <field name="openais_cman.tgtport" showname="Target port number: 177 (RGMANAGER)" size="1" pos="152" show="177" value="b1"/>
        <field name="openais_cman.srcport" showname="Source port number: 177" size="1" pos="153" show="177" value="b1"/>
        <field name="openais_cman.pad" showname="Padding: 62395" size="2" pos="154" show="62395" value="bbf3"/>
        <field name="openais_cman.flags" showname="Flags: 0" size="4" pos="156" show="0" value="00000000"/>
        <field name="openais_cman.srcid" showname="Source node id: 1" size="4" pos="160" show="1" value="01000000"/>
        <field name="openais_cman.tgtid" showname="Target node id: 0 (whole cluster)" size="4" pos="164" show="0" value="00000000"/>
        <proto name="rgmanager" showname="Resource group manager" size="240" pos="168">
          <field name="rgmanager.cluster_msg_header.src_ctx" showname="Source context: 9" size="4" pos="168" show="9" value="00000009"/>
          <field name="rgmanager.cluster_msg_header.src_nodeid" showname="Source node id: 1" size="4" pos="172" show="1" value="00000001"/>
          <field name="rgmanager.cluster_msg_header.dest_ctx" showname="Destination context: 0 (broadcast)" size="4" pos="176" show="0" value="00000000"/>
          <field name="rgmanager.cluster_msg_header.dest_nodeid" showname="Destination node id: 0" size="4" pos="180" show="0" value="00000000"/>
          <field name="rgmanager.cluster_msg_header.msg_contorol" showname="Message contorol: data (4)" size="1" pos="184" show="4" value="04"/>
          <field name="rgmanager.cluster_msg_header.msg_port" showname="Message port: 177" size="1" pos="185" show="177" value="b1"/>
          <field name="rgmanager.cluster_msg_header.pad" showname="Padding: 0xbc00" size="2" pos="186" show="0xbc00" value="bc00"/>
          <field name="rgmanager.cluster_msg_header.reserved" showname="Reserved: 000000d00000300000003001" size="12" pos="188" show="00:00:00:d0:00:00:30:00:00:00:30:01" value="000000d00000300000003001"/>
          <field name="rgmanager.generic_msg_hdr.magic" showname="Magic: version 0 (0x123abc00)" size="4" pos="200" show="0x123abc00" value="123abc00"/>
          <field name="rgmanager.generic_msg_hdr.length" showname="Length: 208" size="4" pos="204" show="208" value="000000d0"/>
          <field name="rgmanager.generic_msg_hdr.command" showname="Command: view formation message (0x00003000)" size="4" pos="208" show="0x00003000" value="00003000"/>
          <field name="rgmanager.generic_msg_hdr.vf_command" showname="View formation command holder: 0x00003001, VF command: join view, VF flags: Unknown" size="4" pos="212" show="0x00003001" value="00003001">
            <field name="rgmanager.vf_command" showname=".... .... .... .... 0011 0000 0000 0001 = VF command: join view (0x00003001)" size="4" pos="212" show="0x00003001" value="3001" unmaskedvalue="00003001"/>
            <field name="rgmanager.vf_flags" showname="0000 0000 0000 0000 .... .... .... .... = VF flags: Unknown (0x00000000)" size="4" pos="212" show="0x00000000" value="0" unmaskedvalue="00003001"/>
          </field>
          <field name="rgmanager.generic_msg_hdr.arg2" showname="Arguement 2: 0 (unused)" size="4" pos="216" show="0" value="00000000"/>
          <field name="rgmanager.generic_msg_hdr.arg3" showname="Arguement 3: 0 (unused)" size="4" pos="220" show="0" value="00000000"/>
          <field name="rgmanager.vf_msg_info" showname="View formation message" size="184" pos="224" show="" value="">
            <field name="rgmanager.vf_msg_info.vf_command" showname=".... .... .... .... 0000 0000 0000 0000 = Command (unused): Unknown (0x00000000)" size="4" pos="224" show="0x00000000" value="0" unmaskedvalue="00000000"/>
            <field name="rgmanager.vf_msg_info.vf_transaction" showname="Transaction: 0x00010005" size="4" pos="228" show="0x00010005" value="00010005"/>
            <field name="rgmanager.vf_msg_info.vf_keyid" showname="Key id: rg=&quot;service:web&quot;" size="64" pos="232" show="rg=\&quot;service:web\&quot;" value="72673d22736572766963653a77656222000000000000000000000000000000000000000000000000000000000000000000000000000000000000000000000000"/>
            <field name="rgmanager.vf_msg_info.vf_coordinator" showname="Coordinator: 1" size="4" pos="296" show="1" value="00000001"/>
            <field name="rgmanager.vf_msg_info.vf_datalen" showname="Data length: 96" size="4" pos="300" show="96" value="00000060"/>
            <field name="rgmanager.vf_msg_info.vf_view" showname="View: 0x0000000000000017" size="8" pos="304" show="0x0000000000000017" value="0000000000000017"/>
            <field name="rgmanager.vf_msg_info.vf_data" showname="Data: service:web" size="96" pos="312" show="service:web" value="736572766963653a7765620000000000000000000000000000000000000000000000000000000000000000000000000000000000000000000000000000000000000000000000000000000000000000006e00000000000000605fa34e00000000">
              <field name="rgmanager.rg_state.rs_name" showname="Name of resource group: service:web" size="64" pos="312" show="service:web" value="736572766963653a7765620000000000000000000000000000000000000000000000000000000000000000000000000000000000000000000000000000000000"/>
              <field name="rgmanager.rg_state.rs_flags" showname="Flags of resource group : 0" size="4" pos="376" show="0" value="00000000"/>
              <field name="rgmanager.rg_state.rs_magic" showname="Magic : 0x00000000" size="4" pos="380" show="0x00000000" value="00000000"/>
              <field name="rgmanager.rg_state.rs_owner" showname="Owner of resource group : 0" size="4" pos="384" show="0" value="00000000"/>
              <field name="rgmanager.rg_state.rs_last_owner" showname="The last owner of resource group : 0" size="4" pos="388" show="0" value="00000000"/>
              <field name="rgmanager.rg_state.rs_state" showname="The state of resource group: stopped (110)" size="4" pos="392" show="110" value="6e000000"/>
              <field name="rgmanager.rg_state.rs_restarts" showname="The number of restarts: 0" size="4" pos="396" show="0" value="00000000"/>
              <field name="rgmanager.rg_state.rs_transition" showname="The last service transaction time: 1319329632" size="8" pos="400" show="1319329632" value="605fa34e00000000"/>
              <field name="" show="Sun Oct 23 09:27:12 2011" size="8" pos="400" value="605fa34e00000000"/>
            </field>
          </field>
        </proto>
      </proto>
    </field>
  </proto>
</packet>


<packet>
  <proto name="geninfo" pos="0" showname="General information" size="267">
    <field name="num" pos="0" show="11" showname="Number" value="b" size="267"/>
    <field name="len" pos="0" show="267" showname="Frame Length" value="10b" size="267"/>
    <field name="caplen" pos="0" show="267" showname="Captured Length" value="10b" size="267"/>
    <field name="timestamp" pos="0" show="Oct 23, 2011 18:27:07.224635000 JST" showname="Captured Time" value="1319362027.224635000" size="267"/>
  </proto>
  <proto name="frame" showname="Frame 11: 267 bytes on wire (2136 bits), 267 bytes captured (2136 bits)" size="267" pos="0">
    <field name="frame.time" showname="Arrival Time: Oct 23, 2011 18:27:07.224635000 JST" size="0" pos="0" show="Oct 23, 2011 18:27:07.224635000"/>
    <field name="frame.time_epoch" showname="Epoch Time: 1319362027.224635000 seconds" size="0" pos="0" show="1319362027.224635000"/>
    <field name="frame.time_delta" showname="Time delta from previous captured frame: 0.001523000 seconds" size="0" pos="0" show="0.001523000"/>
    <field name="frame.time_delta_displayed" showname="Time delta from previous displayed frame: 0.001523000 seconds" size="0" pos="0" show="0.001523000"/>
    <field name="frame.time_relative" showname="Time since reference or first frame: 1.615881000 seconds" size="0" pos="0" show="1.615881000"/>
    <field name="frame.number" showname="Frame Number: 11" size="0" pos="0" show="11"/>
    <field name="frame.len" showname="Frame Length: 267 bytes (2136 bits)" size="0" pos="0" show="267"/>
    <field name="frame.cap_len" showname="Capture Length: 267 bytes (2136 bits)" size="0" pos="0" show="267"/>
    <field name="frame.marked" showname="Frame is marked: False" size="0" pos="0" show="0"/>
    <field name="frame.ignored" showname="Frame is ignored: False" size="0" pos="0" show="0"/>
    <field name="frame.protocols" showname="Protocols in frame: eth:ip:udp:corosync_totemnet:corosync_totempg:openais_cman:rgmanager" size="0" pos="0" show="eth:ip:udp:corosync_totemnet:corosync_totempg:openais_cman:rgmanager"/>
  </proto>
  <proto name="eth" showname="Ethernet II, Src: 54:52:00:01:00:61 (54:52:00:01:00:61), Dst: IPv4mcast_40:30:50 (01:00:5e:40:30:50)" size="14" pos="0">
    <field name="eth.dst" showname="Destination: IPv4mcast_40:30:50 (01:00:5e:40:30:50)" size="6" pos="0" show="01:00:5e:40:30:50" value="01005e403050">
      <field name="eth.addr" showname="Address: IPv4mcast_40:30:50 (01:00:5e:40:30:50)" size="6" pos="0" show="01:00:5e:40:30:50" value="01005e403050"/>
      <field name="eth.ig" showname=".... ...1 .... .... .... .... = IG bit: Group address (multicast/broadcast)" size="3" pos="0" show="1" value="1" unmaskedvalue="01005e"/>
      <field name="eth.lg" showname=".... ..0. .... .... .... .... = LG bit: Globally unique address (factory default)" size="3" pos="0" show="0" value="0" unmaskedvalue="01005e"/>
    </field>
    <field name="eth.src" showname="Source: 54:52:00:01:00:61 (54:52:00:01:00:61)" size="6" pos="6" show="54:52:00:01:00:61" value="545200010061">
      <field name="eth.addr" showname="Address: 54:52:00:01:00:61 (54:52:00:01:00:61)" size="6" pos="6" show="54:52:00:01:00:61" value="545200010061"/>
      <field name="eth.ig" showname=".... ...0 .... .... .... .... = IG bit: Individual address (unicast)" size="3" pos="6" show="0" value="0" unmaskedvalue="545200"/>
      <field name="eth.lg" showname=".... ..0. .... .... .... .... = LG bit: Globally unique address (factory default)" size="3" pos="6" show="0" value="0" unmaskedvalue="545200"/>
    </field>
    <field name="eth.type" showname="Type: IP (0x0800)" size="2" pos="12" show="0x0800" value="0800"/>
  </proto>
  <proto name="ip" showname="Internet Protocol Version 4, Src: 192.168.151.61 (192.168.151.61), Dst: 239.192.48.80 (239.192.48.80)" size="20" pos="14">
    <field name="ip.version" showname="Version: 4" size="1" pos="14" show="4" value="45"/>
    <field name="ip.hdr_len" showname="Header length: 20 bytes" size="1" pos="14" show="20" value="45"/>
    <field name="ip.dsfield" showname="Differentiated Services Field: 0x00 (DSCP 0x00: Default; ECN: 0x00: Not-ECT (Not ECN-Capable Transport))" size="1" pos="15" show="0" value="00">
      <field name="ip.dsfield.dscp" showname="0000 00.. = Differentiated Services Codepoint: Default (0x00)" size="1" pos="15" show="0x00" value="0" unmaskedvalue="00"/>
      <field name="ip.dsfield.ecn" showname=".... ..00 = Explicit Congestion Notification: Not-ECT (Not ECN-Capable Transport) (0x00)" size="1" pos="15" show="0x00" value="0" unmaskedvalue="00"/>
    </field>
    <field name="ip.len" showname="Total Length: 253" size="2" pos="16" show="253" value="00fd"/>
    <field name="ip.id" showname="Identification: 0x0000 (0)" size="2" pos="18" show="0x0000" value="0000"/>
    <field name="ip.flags" showname="Flags: 0x02 (Don&apos;t Fragment)" size="1" pos="20" show="0x02" value="40">
      <field name="ip.flags.rb" showname="0... .... = Reserved bit: Not set" size="1" pos="20" show="0" value="40"/>
      <field name="ip.flags.df" showname=".1.. .... = Don&apos;t fragment: Set" size="1" pos="20" show="1" value="40"/>
      <field name="ip.flags.mf" showname="..0. .... = More fragments: Not set" size="1" pos="20" show="0" value="40"/>
    </field>
    <field name="ip.frag_offset" showname="Fragment offset: 0" size="2" pos="20" show="0" value="4000"/>
    <field name="ip.ttl" showname="Time to live: 1" size="1" pos="22" show="1" value="01"/>
    <field name="ip.proto" showname="Protocol: UDP (17)" size="1" pos="23" show="17" value="11"/>
    <field name="ip.checksum" showname="Header checksum: 0x00fa [correct]" size="2" pos="24" show="0x00fa" value="00fa">
      <field name="ip.checksum_good" showname="Good: True" size="2" pos="24" show="1" value="00fa"/>
      <field name="ip.checksum_bad" showname="Bad: False" size="2" pos="24" show="0" value="00fa"/>
    </field>
    <field name="ip.src" showname="Source: 192.168.151.61 (192.168.151.61)" size="4" pos="26" show="192.168.151.61" value="c0a8973d"/>
    <field name="ip.addr" showname="Source or Destination Address: 192.168.151.61 (192.168.151.61)" hide="yes" size="4" pos="26" show="192.168.151.61" value="c0a8973d"/>
    <field name="ip.src_host" showname="Source Host: 192.168.151.61" hide="yes" size="4" pos="26" show="192.168.151.61" value="c0a8973d"/>
    <field name="ip.host" showname="Source or Destination Host: 192.168.151.61" hide="yes" size="4" pos="26" show="192.168.151.61" value="c0a8973d"/>
    <field name="ip.dst" showname="Destination: 239.192.48.80 (239.192.48.80)" size="4" pos="30" show="239.192.48.80" value="efc03050"/>
    <field name="ip.addr" showname="Source or Destination Address: 239.192.48.80 (239.192.48.80)" hide="yes" size="4" pos="30" show="239.192.48.80" value="efc03050"/>
    <field name="ip.dst_host" showname="Destination Host: 239.192.48.80" hide="yes" size="4" pos="30" show="239.192.48.80" value="efc03050"/>
    <field name="ip.host" showname="Source or Destination Host: 239.192.48.80" hide="yes" size="4" pos="30" show="239.192.48.80" value="efc03050"/>
  </proto>
  <proto name="udp" showname="User Datagram Protocol, Src Port: hpoms-dps-lstn (5404), Dst Port: netsupport (5405)" size="8" pos="34">
    <field name="udp.srcport" showname="Source port: hpoms-dps-lstn (5404)" size="2" pos="34" show="5404" value="151c"/>
    <field name="udp.dstport" showname="Destination port: netsupport (5405)" size="2" pos="36" show="5405" value="151d"/>
    <field name="udp.port" showname="Source or Destination Port: 5404" hide="yes" size="2" pos="34" show="5404" value="151c"/>
    <field name="udp.port" showname="Source or Destination Port: 5405" hide="yes" size="2" pos="36" show="5405" value="151d"/>
    <field name="udp.length" showname="Length: 233" size="2" pos="38" show="233" value="00e9"/>
    <field name="udp.checksum_coverage" showname="Checksum coverage: 233" hide="yes" size="0" pos="38" show="233"/>
    <field name="udp.checksum" showname="Checksum: 0xeca7 [validation disabled]" size="2" pos="40" show="0xeca7" value="eca7">
      <field name="udp.checksum_good" showname="Good Checksum: False" size="2" pos="40" show="0" value="eca7"/>
      <field name="udp.checksum_bad" showname="Bad Checksum: False" size="2" pos="40" show="0" value="eca7"/>
    </field>
  </proto>
  <proto name="corosync_totemnet" showname="Totemnet Layer of Corosync Cluster Engine" size="224" pos="0">
    <field name="corosync_totemnet.security_header_hash_digest" showname="Hash digest: 6bd76832f64d3c0b2ec3a48ccf7c8668ba724fe5" size="20" pos="0" show="6b:d7:68:32:f6:4d:3c:0b:2e:c3:a4:8c:cf:7c:86:68:ba:72:4f:e5" value="6bd76832f64d3c0b2ec3a48ccf7c8668ba724fe5"/>
    <field name="corosync_totemnet.security_header_salt" showname="Salt: 167f56f7687595942ff5f02d15c0e6fb" size="16" pos="20" show="16:7f:56:f7:68:75:95:94:2f:f5:f0:2d:15:c0:e6:fb" value="167f56f7687595942ff5f02d15c0e6fb"/>
    <field name="corosync_totemnet.security_crypto_type" showname="Cryptographic Type: SOBER (0)" size="1" pos="223" show="0" value="00"/>
    <field name="corosync_totemnet.security_crypto_key" showname="alpha" size="0" pos="0" show="" value=""/>
  </proto>
  <proto name="corosync_totemsrp" showname="Totem Single Ring Protocol implemented in Corosync Cluster Engine" size="188" pos="36">
    <field name="corosync_totemsrp.message_header.type" showname="Type: mcast (1)" size="1" pos="36" show="1" value="01"/>
    <field name="corosync_totemsrp.message_header.encapsulated" showname="Encapsulated: not encapsulated (2)" size="1" pos="37" show="2" value="02"/>
    <field name="corosync_totemsrp.message_header.endian_detector" showname="Endian detector: 0xff22" size="2" pos="38" show="0xff22" value="22ff"/>
    <field name="corosync_totemsrp.message_header.nodeid" showname="Node ID: 1" size="4" pos="40" show="1" value="01000000"/>
    <field name="corosync_totemsrp.mcast" showname="ring ordered multicast message" size="180" pos="44" show="" value="">
      <field name="corosync_totemsrp.mcast.system_from" showname="System from address" size="44" pos="44" show="" value="">
        <field name="corosync_totemsrp.ip_address" showname="Node IP address (interface: 0; node: 1)" size="22" pos="44" show="" value="">
          <field name="corosync_totemsrp.ip_address.nodeid" showname="Node ID: 1" size="4" pos="44" show="1" value="01000000"/>
          <field name="corosync_totemsrp.ip_address.family" showname="Address family: AF_INET (2)" size="2" pos="48" show="2" value="0200"/>
          <field name="corosync_totemsrp.ip_address.addr4" showname="Address: 192.168.151.61 (192.168.151.61)" size="4" pos="50" show="192.168.151.61" value="c0a8973d"/>
          <field name="corosync_totemsrp.ip_address.addr4_padding" showname="Address padding: 08000200c0a8973d08000400" size="12" pos="54" show="08:00:02:00:c0:a8:97:3d:08:00:04:00" value="08000200c0a8973d08000400"/>
        </field>
        <field name="corosync_totemsrp.ip_address" showname="Node IP address (interface: 1; node: 0)" size="22" pos="66" show="" value="">
          <field name="corosync_totemsrp.ip_address.nodeid" showname="Node ID: 0" size="4" pos="66" show="0" value="00000000"/>
          <field name="corosync_totemsrp.ip_address.family" showname="Address family: Unknown (0)" size="2" pos="70" show="0" value="0000"/>
          <field name="corosync_totemsrp.ip_address.addr" showname="Address: 00000000000000000000000000000000" size="16" pos="72" show="00:00:00:00:00:00:00:00:00:00:00:00:00:00:00:00" value="00000000000000000000000000000000"/>
        </field>
      </field>
      <field name="corosync_totemsrp.mcast.seq" showname="Multicast sequence number: 188" size="4" pos="88" show="188" value="bc000000"/>
      <field name="corosync_totemsrp.mcast.this_seqno" showname="This Sequence number: 112" size="4" pos="92" show="112" value="70000000"/>
      <field name="corosync_totemsrp.memb_ring_id" showname="Member ring id (node: 1)" size="30" pos="96" show="" value="">
        <field name="corosync_totemsrp.ip_address" showname="Node IP address (node: 1)" size="22" pos="96" show="" value="">
          <field name="corosync_totemsrp.ip_address.nodeid" showname="Node ID: 1" size="4" pos="96" show="1" value="01000000"/>
          <field name="corosync_totemsrp.ip_address.family" showname="Address family: AF_INET (2)" size="2" pos="100" show="2" value="0200"/>
          <field name="corosync_totemsrp.ip_address.addr4" showname="Address: 192.168.151.61 (192.168.151.61)" size="4" pos="102" show="192.168.151.61" value="c0a8973d"/>
          <field name="corosync_totemsrp.ip_address.addr4_padding" showname="Address padding: 08000200c0a8973d08000400" size="12" pos="106" show="08:00:02:00:c0:a8:97:3d:08:00:04:00" value="08000200c0a8973d08000400"/>
        </field>
        <field name="corosync_totemsrp.memb_ring_id.seq" showname="Squence in member ring id: 30000" size="8" pos="118" show="30000" value="3075000000000000"/>
      </field>
      <field name="corosync_totemsrp.mcast.node_id" showname="Node id(unused?): 0" size="4" pos="126" show="0" value="00000000"/>
      <field name="corosync_totemsrp.mcast.guarantee" showname="Guarantee: 0" size="4" pos="130" show="0" value="00000000"/>
    </field>
  </proto>
  <proto name="corosync_totempg" showname="Process Group Layer of Corosync Cluster Engine" size="90" pos="134">
    <field name="corosync_totempg.mcast_header" showname="Multicast packet header" size="4" pos="134" show="" value="">
      <field name="corosync_totempg.mcast_header.version" showname="Version: 0" size="2" pos="134" show="0" value="0000"/>
      <field name="corosync_totempg.mcast_header.type" showname="Type: 444" size="2" pos="136" show="444" value="bc01"/>
    </field>
    <field name="corosync_totempg.fragmented" showname="Fragment flag: 0" size="1" pos="138" show="0" value="00"/>
    <field name="corosync_totempg.continuation" showname="Continuation flag: 0" size="1" pos="139" show="0" value="00"/>
    <field name="corosync_totempg.msg_count" showname="Count of messages: 1" size="2" pos="140" show="1" value="0100"/>
    <field name="corosync_totempg.msg_len" showname="Length of message: 80 (msg index: 0)" size="2" pos="142" show="80" value="5000"/>
    <field name="corosync_totempg.mcast_message" showname="Multicast packet message (msg index: 0)" size="80" pos="144" show="" value="">
      <field name="corosync_totempg.group_count" showname="Group count: 1" size="2" pos="144" show="1" value="0100"/>
      <field name="corosync_totempg.group_len" showname="Length of group name: 4 (group index: 0)" size="2" pos="146" show="4" value="0400"/>
      <field name="corosync_totempg.group_name" showname="Group name: CMAN (group index: 0)" size="4" pos="148" show="CMAN" value="434d414e"/>
      <proto name="openais_cman" showname="Cman running on OpenAIS" size="72" pos="152">
        <field name="openais_cman.tgtport" showname="Target port number: 177 (RGMANAGER)" size="1" pos="152" show="177" value="b1"/>
        <field name="openais_cman.srcport" showname="Source port number: 177" size="1" pos="153" show="177" value="b1"/>
        <field name="openais_cman.pad" showname="Padding: 62395" size="2" pos="154" show="62395" value="bbf3"/>
        <field name="openais_cman.flags" showname="Flags: 0" size="4" pos="156" show="0" value="00000000"/>
        <field name="openais_cman.srcid" showname="Source node id: 1" size="4" pos="160" show="1" value="01000000"/>
        <field name="openais_cman.tgtid" showname="Target node id: 0 (whole cluster)" size="4" pos="164" show="0" value="00000000"/>
        <proto name="rgmanager" showname="Resource group manager" size="56" pos="168">
          <field name="rgmanager.cluster_msg_header.src_ctx" showname="Source context: 2" size="4" pos="168" show="2" value="00000002"/>
          <field name="rgmanager.cluster_msg_header.src_nodeid" showname="Source node id: 1" size="4" pos="172" show="1" value="00000001"/>
          <field name="rgmanager.cluster_msg_header.dest_ctx" showname="Destination context: 0 (broadcast)" size="4" pos="176" show="0" value="00000000"/>
          <field name="rgmanager.cluster_msg_header.dest_nodeid" showname="Destination node id: 0" size="4" pos="180" show="0" value="00000000"/>
          <field name="rgmanager.cluster_msg_header.msg_contorol" showname="Message contorol: data (4)" size="1" pos="184" show="4" value="04"/>
          <field name="rgmanager.cluster_msg_header.msg_port" showname="Message port: 177" size="1" pos="185" show="177" value="b1"/>
          <field name="rgmanager.cluster_msg_header.pad" showname="Padding: 0x8600" size="2" pos="186" show="0x8600" value="8600"/>
          <field name="rgmanager.cluster_msg_header.reserved" showname="Reserved: 000000008010000ce37f0000" size="12" pos="188" show="00:00:00:00:80:10:00:0c:e3:7f:00:00" value="000000008010000ce37f0000"/>
          <field name="rgmanager.generic_msg_hdr.magic" showname="Magic: version 0 (0x123abc00)" size="4" pos="200" show="0x123abc00" value="123abc00"/>
          <field name="rgmanager.generic_msg_hdr.length" showname="Length: 24" size="4" pos="204" show="24" value="00000018"/>
          <field name="rgmanager.generic_msg_hdr.command" showname="Command: view formation message (0x00003000)" size="4" pos="208" show="0x00003000" value="00003000"/>
          <field name="rgmanager.generic_msg_hdr.vf_command" showname="View formation command holder: 0x00013002, VF command: vote, VF flags: affirm" size="4" pos="212" show="0x00013002" value="00013002">
            <field name="rgmanager.vf_command" showname=".... .... .... .... 0011 0000 0000 0010 = VF command: vote (0x00003002)" size="4" pos="212" show="0x00003002" value="3002" unmaskedvalue="00013002"/>
            <field name="rgmanager.vf_flags" showname="0000 0000 0000 0001 .... .... .... .... = VF flags: affirm (0x00000001)" size="4" pos="212" show="0x00000001" value="1" unmaskedvalue="00013002"/>
          </field>
          <field name="rgmanager.generic_msg_hdr.vf_trans" showname="View formed transaction: 0x00010005" size="4" pos="216" show="0x00010005" value="00010005"/>
          <field name="rgmanager.generic_msg_hdr.arg3" showname="Arguement 3: 0 (unused)" size="4" pos="220" show="0" value="00000000"/>
        </proto>
      </proto>
    </field>
  </proto>
</packet>


<packet>
  <proto name="geninfo" pos="0" showname="General information" size="267">
    <field name="num" pos="0" show="12" showname="Number" value="c" size="267"/>
    <field name="len" pos="0" show="267" showname="Frame Length" value="10b" size="267"/>
    <field name="caplen" pos="0" show="267" showname="Captured Length" value="10b" size="267"/>
    <field name="timestamp" pos="0" show="Oct 23, 2011 18:27:07.226145000 JST" showname="Captured Time" value="1319362027.226145000" size="267"/>
  </proto>
  <proto name="frame" showname="Frame 12: 267 bytes on wire (2136 bits), 267 bytes captured (2136 bits)" size="267" pos="0">
    <field name="frame.time" showname="Arrival Time: Oct 23, 2011 18:27:07.226145000 JST" size="0" pos="0" show="Oct 23, 2011 18:27:07.226145000"/>
    <field name="frame.time_epoch" showname="Epoch Time: 1319362027.226145000 seconds" size="0" pos="0" show="1319362027.226145000"/>
    <field name="frame.time_delta" showname="Time delta from previous captured frame: 0.001510000 seconds" size="0" pos="0" show="0.001510000"/>
    <field name="frame.time_delta_displayed" showname="Time delta from previous displayed frame: 0.001510000 seconds" size="0" pos="0" show="0.001510000"/>
    <field name="frame.time_relative" showname="Time since reference or first frame: 1.617391000 seconds" size="0" pos="0" show="1.617391000"/>
    <field name="frame.number" showname="Frame Number: 12" size="0" pos="0" show="12"/>
    <field name="frame.len" showname="Frame Length: 267 bytes (2136 bits)" size="0" pos="0" show="267"/>
    <field name="frame.cap_len" showname="Capture Length: 267 bytes (2136 bits)" size="0" pos="0" show="267"/>
    <field name="frame.marked" showname="Frame is marked: False" size="0" pos="0" show="0"/>
    <field name="frame.ignored" showname="Frame is ignored: False" size="0" pos="0" show="0"/>
    <field name="frame.protocols" showname="Protocols in frame: eth:ip:udp:corosync_totemnet:corosync_totempg:openais_cman:rgmanager" size="0" pos="0" show="eth:ip:udp:corosync_totemnet:corosync_totempg:openais_cman:rgmanager"/>
  </proto>
  <proto name="eth" showname="Ethernet II, Src: 54:52:00:01:00:61 (54:52:00:01:00:61), Dst: IPv4mcast_40:30:50 (01:00:5e:40:30:50)" size="14" pos="0">
    <field name="eth.dst" showname="Destination: IPv4mcast_40:30:50 (01:00:5e:40:30:50)" size="6" pos="0" show="01:00:5e:40:30:50" value="01005e403050">
      <field name="eth.addr" showname="Address: IPv4mcast_40:30:50 (01:00:5e:40:30:50)" size="6" pos="0" show="01:00:5e:40:30:50" value="01005e403050"/>
      <field name="eth.ig" showname=".... ...1 .... .... .... .... = IG bit: Group address (multicast/broadcast)" size="3" pos="0" show="1" value="1" unmaskedvalue="01005e"/>
      <field name="eth.lg" showname=".... ..0. .... .... .... .... = LG bit: Globally unique address (factory default)" size="3" pos="0" show="0" value="0" unmaskedvalue="01005e"/>
    </field>
    <field name="eth.src" showname="Source: 54:52:00:01:00:61 (54:52:00:01:00:61)" size="6" pos="6" show="54:52:00:01:00:61" value="545200010061">
      <field name="eth.addr" showname="Address: 54:52:00:01:00:61 (54:52:00:01:00:61)" size="6" pos="6" show="54:52:00:01:00:61" value="545200010061"/>
      <field name="eth.ig" showname=".... ...0 .... .... .... .... = IG bit: Individual address (unicast)" size="3" pos="6" show="0" value="0" unmaskedvalue="545200"/>
      <field name="eth.lg" showname=".... ..0. .... .... .... .... = LG bit: Globally unique address (factory default)" size="3" pos="6" show="0" value="0" unmaskedvalue="545200"/>
    </field>
    <field name="eth.type" showname="Type: IP (0x0800)" size="2" pos="12" show="0x0800" value="0800"/>
  </proto>
  <proto name="ip" showname="Internet Protocol Version 4, Src: 192.168.151.61 (192.168.151.61), Dst: 239.192.48.80 (239.192.48.80)" size="20" pos="14">
    <field name="ip.version" showname="Version: 4" size="1" pos="14" show="4" value="45"/>
    <field name="ip.hdr_len" showname="Header length: 20 bytes" size="1" pos="14" show="20" value="45"/>
    <field name="ip.dsfield" showname="Differentiated Services Field: 0x00 (DSCP 0x00: Default; ECN: 0x00: Not-ECT (Not ECN-Capable Transport))" size="1" pos="15" show="0" value="00">
      <field name="ip.dsfield.dscp" showname="0000 00.. = Differentiated Services Codepoint: Default (0x00)" size="1" pos="15" show="0x00" value="0" unmaskedvalue="00"/>
      <field name="ip.dsfield.ecn" showname=".... ..00 = Explicit Congestion Notification: Not-ECT (Not ECN-Capable Transport) (0x00)" size="1" pos="15" show="0x00" value="0" unmaskedvalue="00"/>
    </field>
    <field name="ip.len" showname="Total Length: 253" size="2" pos="16" show="253" value="00fd"/>
    <field name="ip.id" showname="Identification: 0x0000 (0)" size="2" pos="18" show="0x0000" value="0000"/>
    <field name="ip.flags" showname="Flags: 0x02 (Don&apos;t Fragment)" size="1" pos="20" show="0x02" value="40">
      <field name="ip.flags.rb" showname="0... .... = Reserved bit: Not set" size="1" pos="20" show="0" value="40"/>
      <field name="ip.flags.df" showname=".1.. .... = Don&apos;t fragment: Set" size="1" pos="20" show="1" value="40"/>
      <field name="ip.flags.mf" showname="..0. .... = More fragments: Not set" size="1" pos="20" show="0" value="40"/>
    </field>
    <field name="ip.frag_offset" showname="Fragment offset: 0" size="2" pos="20" show="0" value="4000"/>
    <field name="ip.ttl" showname="Time to live: 1" size="1" pos="22" show="1" value="01"/>
    <field name="ip.proto" showname="Protocol: UDP (17)" size="1" pos="23" show="17" value="11"/>
    <field name="ip.checksum" showname="Header checksum: 0x00fa [correct]" size="2" pos="24" show="0x00fa" value="00fa">
      <field name="ip.checksum_good" showname="Good: True" size="2" pos="24" show="1" value="00fa"/>
      <field name="ip.checksum_bad" showname="Bad: False" size="2" pos="24" show="0" value="00fa"/>
    </field>
    <field name="ip.src" showname="Source: 192.168.151.61 (192.168.151.61)" size="4" pos="26" show="192.168.151.61" value="c0a8973d"/>
    <field name="ip.addr" showname="Source or Destination Address: 192.168.151.61 (192.168.151.61)" hide="yes" size="4" pos="26" show="192.168.151.61" value="c0a8973d"/>
    <field name="ip.src_host" showname="Source Host: 192.168.151.61" hide="yes" size="4" pos="26" show="192.168.151.61" value="c0a8973d"/>
    <field name="ip.host" showname="Source or Destination Host: 192.168.151.61" hide="yes" size="4" pos="26" show="192.168.151.61" value="c0a8973d"/>
    <field name="ip.dst" showname="Destination: 239.192.48.80 (239.192.48.80)" size="4" pos="30" show="239.192.48.80" value="efc03050"/>
    <field name="ip.addr" showname="Source or Destination Address: 239.192.48.80 (239.192.48.80)" hide="yes" size="4" pos="30" show="239.192.48.80" value="efc03050"/>
    <field name="ip.dst_host" showname="Destination Host: 239.192.48.80" hide="yes" size="4" pos="30" show="239.192.48.80" value="efc03050"/>
    <field name="ip.host" showname="Source or Destination Host: 239.192.48.80" hide="yes" size="4" pos="30" show="239.192.48.80" value="efc03050"/>
  </proto>
  <proto name="udp" showname="User Datagram Protocol, Src Port: hpoms-dps-lstn (5404), Dst Port: netsupport (5405)" size="8" pos="34">
    <field name="udp.srcport" showname="Source port: hpoms-dps-lstn (5404)" size="2" pos="34" show="5404" value="151c"/>
    <field name="udp.dstport" showname="Destination port: netsupport (5405)" size="2" pos="36" show="5405" value="151d"/>
    <field name="udp.port" showname="Source or Destination Port: 5404" hide="yes" size="2" pos="34" show="5404" value="151c"/>
    <field name="udp.port" showname="Source or Destination Port: 5405" hide="yes" size="2" pos="36" show="5405" value="151d"/>
    <field name="udp.length" showname="Length: 233" size="2" pos="38" show="233" value="00e9"/>
    <field name="udp.checksum_coverage" showname="Checksum coverage: 233" hide="yes" size="0" pos="38" show="233"/>
    <field name="udp.checksum" showname="Checksum: 0x1d01 [validation disabled]" size="2" pos="40" show="0x1d01" value="1d01">
      <field name="udp.checksum_good" showname="Good Checksum: False" size="2" pos="40" show="0" value="1d01"/>
      <field name="udp.checksum_bad" showname="Bad Checksum: False" size="2" pos="40" show="0" value="1d01"/>
    </field>
  </proto>
  <proto name="corosync_totemnet" showname="Totemnet Layer of Corosync Cluster Engine" size="224" pos="0">
    <field name="corosync_totemnet.security_header_hash_digest" showname="Hash digest: 3095ac2b23718c68076cb2363f9af146c902fd56" size="20" pos="0" show="30:95:ac:2b:23:71:8c:68:07:6c:b2:36:3f:9a:f1:46:c9:02:fd:56" value="3095ac2b23718c68076cb2363f9af146c902fd56"/>
    <field name="corosync_totemnet.security_header_salt" showname="Salt: 6a0e1fc90577e665604d389931a2ffea" size="16" pos="20" show="6a:0e:1f:c9:05:77:e6:65:60:4d:38:99:31:a2:ff:ea" value="6a0e1fc90577e665604d389931a2ffea"/>
    <field name="corosync_totemnet.security_crypto_type" showname="Cryptographic Type: SOBER (0)" size="1" pos="223" show="0" value="00"/>
    <field name="corosync_totemnet.security_crypto_key" showname="alpha" size="0" pos="0" show="" value=""/>
  </proto>
  <proto name="corosync_totemsrp" showname="Totem Single Ring Protocol implemented in Corosync Cluster Engine" size="188" pos="36">
    <field name="corosync_totemsrp.message_header.type" showname="Type: mcast (1)" size="1" pos="36" show="1" value="01"/>
    <field name="corosync_totemsrp.message_header.encapsulated" showname="Encapsulated: not encapsulated (2)" size="1" pos="37" show="2" value="02"/>
    <field name="corosync_totemsrp.message_header.endian_detector" showname="Endian detector: 0xff22" size="2" pos="38" show="0xff22" value="22ff"/>
    <field name="corosync_totemsrp.message_header.nodeid" showname="Node ID: 1" size="4" pos="40" show="1" value="01000000"/>
    <field name="corosync_totemsrp.mcast" showname="ring ordered multicast message" size="180" pos="44" show="" value="">
      <field name="corosync_totemsrp.mcast.system_from" showname="System from address" size="44" pos="44" show="" value="">
        <field name="corosync_totemsrp.ip_address" showname="Node IP address (interface: 0; node: 1)" size="22" pos="44" show="" value="">
          <field name="corosync_totemsrp.ip_address.nodeid" showname="Node ID: 1" size="4" pos="44" show="1" value="01000000"/>
          <field name="corosync_totemsrp.ip_address.family" showname="Address family: AF_INET (2)" size="2" pos="48" show="2" value="0200"/>
          <field name="corosync_totemsrp.ip_address.addr4" showname="Address: 192.168.151.61 (192.168.151.61)" size="4" pos="50" show="192.168.151.61" value="c0a8973d"/>
          <field name="corosync_totemsrp.ip_address.addr4_padding" showname="Address padding: 08000200c0a8973d08000400" size="12" pos="54" show="08:00:02:00:c0:a8:97:3d:08:00:04:00" value="08000200c0a8973d08000400"/>
        </field>
        <field name="corosync_totemsrp.ip_address" showname="Node IP address (interface: 1; node: 0)" size="22" pos="66" show="" value="">
          <field name="corosync_totemsrp.ip_address.nodeid" showname="Node ID: 0" size="4" pos="66" show="0" value="00000000"/>
          <field name="corosync_totemsrp.ip_address.family" showname="Address family: Unknown (0)" size="2" pos="70" show="0" value="0000"/>
          <field name="corosync_totemsrp.ip_address.addr" showname="Address: 00000000000000000000000000000000" size="16" pos="72" show="00:00:00:00:00:00:00:00:00:00:00:00:00:00:00:00" value="00000000000000000000000000000000"/>
        </field>
      </field>
      <field name="corosync_totemsrp.mcast.seq" showname="Multicast sequence number: 189" size="4" pos="88" show="189" value="bd000000"/>
      <field name="corosync_totemsrp.mcast.this_seqno" showname="This Sequence number: 113" size="4" pos="92" show="113" value="71000000"/>
      <field name="corosync_totemsrp.memb_ring_id" showname="Member ring id (node: 1)" size="30" pos="96" show="" value="">
        <field name="corosync_totemsrp.ip_address" showname="Node IP address (node: 1)" size="22" pos="96" show="" value="">
          <field name="corosync_totemsrp.ip_address.nodeid" showname="Node ID: 1" size="4" pos="96" show="1" value="01000000"/>
          <field name="corosync_totemsrp.ip_address.family" showname="Address family: AF_INET (2)" size="2" pos="100" show="2" value="0200"/>
          <field name="corosync_totemsrp.ip_address.addr4" showname="Address: 192.168.151.61 (192.168.151.61)" size="4" pos="102" show="192.168.151.61" value="c0a8973d"/>
          <field name="corosync_totemsrp.ip_address.addr4_padding" showname="Address padding: 08000200c0a8973d08000400" size="12" pos="106" show="08:00:02:00:c0:a8:97:3d:08:00:04:00" value="08000200c0a8973d08000400"/>
        </field>
        <field name="corosync_totemsrp.memb_ring_id.seq" showname="Squence in member ring id: 30000" size="8" pos="118" show="30000" value="3075000000000000"/>
      </field>
      <field name="corosync_totemsrp.mcast.node_id" showname="Node id(unused?): 0" size="4" pos="126" show="0" value="00000000"/>
      <field name="corosync_totemsrp.mcast.guarantee" showname="Guarantee: 0" size="4" pos="130" show="0" value="00000000"/>
    </field>
  </proto>
  <proto name="corosync_totempg" showname="Process Group Layer of Corosync Cluster Engine" size="90" pos="134">
    <field name="corosync_totempg.mcast_header" showname="Multicast packet header" size="4" pos="134" show="" value="">
      <field name="corosync_totempg.mcast_header.version" showname="Version: 0" size="2" pos="134" show="0" value="0000"/>
      <field name="corosync_totempg.mcast_header.type" showname="Type: 444" size="2" pos="136" show="444" value="bc01"/>
    </field>
    <field name="corosync_totempg.fragmented" showname="Fragment flag: 0" size="1" pos="138" show="0" value="00"/>
    <field name="corosync_totempg.continuation" showname="Continuation flag: 0" size="1" pos="139" show="0" value="00"/>
    <field name="corosync_totempg.msg_count" showname="Count of messages: 1" size="2" pos="140" show="1" value="0100"/>
    <field name="corosync_totempg.msg_len" showname="Length of message: 80 (msg index: 0)" size="2" pos="142" show="80" value="5000"/>
    <field name="corosync_totempg.mcast_message" showname="Multicast packet message (msg index: 0)" size="80" pos="144" show="" value="">
      <field name="corosync_totempg.group_count" showname="Group count: 1" size="2" pos="144" show="1" value="0100"/>
      <field name="corosync_totempg.group_len" showname="Length of group name: 4 (group index: 0)" size="2" pos="146" show="4" value="0400"/>
      <field name="corosync_totempg.group_name" showname="Group name: CMAN (group index: 0)" size="4" pos="148" show="CMAN" value="434d414e"/>
      <proto name="openais_cman" showname="Cman running on OpenAIS" size="72" pos="152">
        <field name="openais_cman.tgtport" showname="Target port number: 177 (RGMANAGER)" size="1" pos="152" show="177" value="b1"/>
        <field name="openais_cman.srcport" showname="Source port number: 177" size="1" pos="153" show="177" value="b1"/>
        <field name="openais_cman.pad" showname="Padding: 62395" size="2" pos="154" show="62395" value="bbf3"/>
        <field name="openais_cman.flags" showname="Flags: 0" size="4" pos="156" show="0" value="00000000"/>
        <field name="openais_cman.srcid" showname="Source node id: 1" size="4" pos="160" show="1" value="01000000"/>
        <field name="openais_cman.tgtid" showname="Target node id: 0 (whole cluster)" size="4" pos="164" show="0" value="00000000"/>
        <proto name="rgmanager" showname="Resource group manager" size="56" pos="168">
          <field name="rgmanager.cluster_msg_header.src_ctx" showname="Source context: 9" size="4" pos="168" show="9" value="00000009"/>
          <field name="rgmanager.cluster_msg_header.src_nodeid" showname="Source node id: 1" size="4" pos="172" show="1" value="00000001"/>
          <field name="rgmanager.cluster_msg_header.dest_ctx" showname="Destination context: 0 (broadcast)" size="4" pos="176" show="0" value="00000000"/>
          <field name="rgmanager.cluster_msg_header.dest_nodeid" showname="Destination node id: 0" size="4" pos="180" show="0" value="00000000"/>
          <field name="rgmanager.cluster_msg_header.msg_contorol" showname="Message contorol: data (4)" size="1" pos="184" show="4" value="04"/>
          <field name="rgmanager.cluster_msg_header.msg_port" showname="Message port: 177" size="1" pos="185" show="177" value="b1"/>
          <field name="rgmanager.cluster_msg_header.pad" showname="Padding: 0x0000" size="2" pos="186" show="0x0000" value="0000"/>
          <field name="rgmanager.cluster_msg_header.reserved" showname="Reserved: 00000000b100000000003005" size="12" pos="188" show="00:00:00:00:b1:00:00:00:00:00:30:05" value="00000000b100000000003005"/>
          <field name="rgmanager.generic_msg_hdr.magic" showname="Magic: version 0 (0x123abc00)" size="4" pos="200" show="0x123abc00" value="123abc00"/>
          <field name="rgmanager.generic_msg_hdr.length" showname="Length: 24" size="4" pos="204" show="24" value="00000018"/>
          <field name="rgmanager.generic_msg_hdr.command" showname="Command: view formation message (0x00003000)" size="4" pos="208" show="0x00003000" value="00003000"/>
          <field name="rgmanager.generic_msg_hdr.vf_command" showname="View formation command holder: 0x00003005, VF command: view formed, VF flags: Unknown" size="4" pos="212" show="0x00003005" value="00003005">
            <field name="rgmanager.vf_command" showname=".... .... .... .... 0011 0000 0000 0101 = VF command: view formed (0x00003005)" size="4" pos="212" show="0x00003005" value="3005" unmaskedvalue="00003005"/>
            <field name="rgmanager.vf_flags" showname="0000 0000 0000 0000 .... .... .... .... = VF flags: Unknown (0x00000000)" size="4" pos="212" show="0x00000000" value="0" unmaskedvalue="00003005"/>
          </field>
          <field name="rgmanager.generic_msg_hdr.vf_trans" showname="View formed transaction: 0x00010005" size="4" pos="216" show="0x00010005" value="00010005"/>
          <field name="rgmanager.generic_msg_hdr.arg3" showname="Arguement 3: 0 (unused)" size="4" pos="220" show="0" value="00000000"/>
        </proto>
      </proto>
    </field>
  </proto>
</packet>


</pdml>
