<?xml version="1.0"?>
<?xml-stylesheet type="text/xsl" href="pdml2html.xsl"?>
<!-- You can find pdml2html.xsl in /usr/share/wireshark or at http://anonsvn.wireshark.org/trunk/wireshark/pdml2html.xsl. -->
<pdml version="0" creator="wireshark/1.6.14" time="Sat Apr 13 14:56:54 2013" capture_file="pcap/todo-fragments-handling--key:beta.pcap">
<packet>
  <proto name="geninfo" pos="0" showname="General information" size="1515">
    <field name="num" pos="0" show="1" showname="Number" value="1" size="1515"/>
    <field name="len" pos="0" show="1515" showname="Frame Length" value="5eb" size="1515"/>
    <field name="caplen" pos="0" show="1515" showname="Captured Length" value="5eb" size="1515"/>
    <field name="timestamp" pos="0" show="Oct 15, 2011 07:49:13.971893000 JST" showname="Captured Time" value="1318632553.971893000" size="1515"/>
  </proto>
  <proto name="frame" showname="Frame 1: 1515 bytes on wire (12120 bits), 1515 bytes captured (12120 bits)" size="1515" pos="0">
    <field name="frame.time" showname="Arrival Time: Oct 15, 2011 07:49:13.971893000 JST" size="0" pos="0" show="Oct 15, 2011 07:49:13.971893000"/>
    <field name="frame.time_epoch" showname="Epoch Time: 1318632553.971893000 seconds" size="0" pos="0" show="1318632553.971893000"/>
    <field name="frame.time_delta" showname="Time delta from previous captured frame: 0.000000000 seconds" size="0" pos="0" show="0.000000000"/>
    <field name="frame.time_delta_displayed" showname="Time delta from previous displayed frame: 0.000000000 seconds" size="0" pos="0" show="0.000000000"/>
    <field name="frame.time_relative" showname="Time since reference or first frame: 0.000000000 seconds" size="0" pos="0" show="0.000000000"/>
    <field name="frame.number" showname="Frame Number: 1" size="0" pos="0" show="1"/>
    <field name="frame.len" showname="Frame Length: 1515 bytes (12120 bits)" size="0" pos="0" show="1515"/>
    <field name="frame.cap_len" showname="Capture Length: 1515 bytes (12120 bits)" size="0" pos="0" show="1515"/>
    <field name="frame.marked" showname="Frame is marked: False" size="0" pos="0" show="0"/>
    <field name="frame.ignored" showname="Frame is ignored: False" size="0" pos="0" show="0"/>
    <field name="frame.protocols" showname="Protocols in frame: eth:ip:udp:corosync_totemnet:corosync_totempg" size="0" pos="0" show="eth:ip:udp:corosync_totemnet:corosync_totempg"/>
  </proto>
  <proto name="eth" showname="Ethernet II, Src: 54:52:00:01:00:63 (54:52:00:01:00:63), Dst: IPv4mcast_40:4b:91 (01:00:5e:40:4b:91)" size="14" pos="0">
    <field name="eth.dst" showname="Destination: IPv4mcast_40:4b:91 (01:00:5e:40:4b:91)" size="6" pos="0" show="01:00:5e:40:4b:91" value="01005e404b91">
      <field name="eth.addr" showname="Address: IPv4mcast_40:4b:91 (01:00:5e:40:4b:91)" size="6" pos="0" show="01:00:5e:40:4b:91" value="01005e404b91"/>
      <field name="eth.ig" showname=".... ...1 .... .... .... .... = IG bit: Group address (multicast/broadcast)" size="3" pos="0" show="1" value="1" unmaskedvalue="01005e"/>
      <field name="eth.lg" showname=".... ..0. .... .... .... .... = LG bit: Globally unique address (factory default)" size="3" pos="0" show="0" value="0" unmaskedvalue="01005e"/>
    </field>
    <field name="eth.src" showname="Source: 54:52:00:01:00:63 (54:52:00:01:00:63)" size="6" pos="6" show="54:52:00:01:00:63" value="545200010063">
      <field name="eth.addr" showname="Address: 54:52:00:01:00:63 (54:52:00:01:00:63)" size="6" pos="6" show="54:52:00:01:00:63" value="545200010063"/>
      <field name="eth.ig" showname=".... ...0 .... .... .... .... = IG bit: Individual address (unicast)" size="3" pos="6" show="0" value="0" unmaskedvalue="545200"/>
      <field name="eth.lg" showname=".... ..0. .... .... .... .... = LG bit: Globally unique address (factory default)" size="3" pos="6" show="0" value="0" unmaskedvalue="545200"/>
    </field>
    <field name="eth.type" showname="Type: IP (0x0800)" size="2" pos="12" show="0x0800" value="0800"/>
  </proto>
  <proto name="ip" showname="Internet Protocol Version 4, Src: 192.168.151.63 (192.168.151.63), Dst: 239.192.75.145 (239.192.75.145)" size="20" pos="14">
    <field name="ip.version" showname="Version: 4" size="1" pos="14" show="4" value="45"/>
    <field name="ip.hdr_len" showname="Header length: 20 bytes" size="1" pos="14" show="20" value="45"/>
    <field name="ip.dsfield" showname="Differentiated Services Field: 0x00 (DSCP 0x00: Default; ECN: 0x00: Not-ECT (Not ECN-Capable Transport))" size="1" pos="15" show="0" value="00">
      <field name="ip.dsfield.dscp" showname="0000 00.. = Differentiated Services Codepoint: Default (0x00)" size="1" pos="15" show="0x00" value="0" unmaskedvalue="00"/>
      <field name="ip.dsfield.ecn" showname=".... ..00 = Explicit Congestion Notification: Not-ECT (Not ECN-Capable Transport) (0x00)" size="1" pos="15" show="0x00" value="0" unmaskedvalue="00"/>
    </field>
    <field name="ip.len" showname="Total Length: 1501" size="2" pos="16" show="1501" value="05dd"/>
    <field name="ip.id" showname="Identification: 0xbd6e (48494)" size="2" pos="18" show="0xbd6e" value="bd6e"/>
    <field name="ip.flags" showname="Flags: 0x00" size="1" pos="20" show="0x00" value="00">
      <field name="ip.flags.rb" showname="0... .... = Reserved bit: Not set" size="1" pos="20" show="0" value="00"/>
      <field name="ip.flags.df" showname=".0.. .... = Don&apos;t fragment: Not set" size="1" pos="20" show="0" value="00"/>
      <field name="ip.flags.mf" showname="..0. .... = More fragments: Not set" size="1" pos="20" show="0" value="00"/>
    </field>
    <field name="ip.frag_offset" showname="Fragment offset: 0" size="2" pos="20" show="0" value="0000"/>
    <field name="ip.ttl" showname="Time to live: 1" size="1" pos="22" show="1" value="01"/>
    <field name="ip.proto" showname="Protocol: UDP (17)" size="1" pos="23" show="17" value="11"/>
    <field name="ip.checksum" showname="Header checksum: 0x6368 [correct]" size="2" pos="24" show="0x6368" value="6368">
      <field name="ip.checksum_good" showname="Good: True" size="2" pos="24" show="1" value="6368"/>
      <field name="ip.checksum_bad" showname="Bad: False" size="2" pos="24" show="0" value="6368"/>
    </field>
    <field name="ip.src" showname="Source: 192.168.151.63 (192.168.151.63)" size="4" pos="26" show="192.168.151.63" value="c0a8973f"/>
    <field name="ip.addr" showname="Source or Destination Address: 192.168.151.63 (192.168.151.63)" hide="yes" size="4" pos="26" show="192.168.151.63" value="c0a8973f"/>
    <field name="ip.src_host" showname="Source Host: 192.168.151.63" hide="yes" size="4" pos="26" show="192.168.151.63" value="c0a8973f"/>
    <field name="ip.host" showname="Source or Destination Host: 192.168.151.63" hide="yes" size="4" pos="26" show="192.168.151.63" value="c0a8973f"/>
    <field name="ip.dst" showname="Destination: 239.192.75.145 (239.192.75.145)" size="4" pos="30" show="239.192.75.145" value="efc04b91"/>
    <field name="ip.addr" showname="Source or Destination Address: 239.192.75.145 (239.192.75.145)" hide="yes" size="4" pos="30" show="239.192.75.145" value="efc04b91"/>
    <field name="ip.dst_host" showname="Destination Host: 239.192.75.145" hide="yes" size="4" pos="30" show="239.192.75.145" value="efc04b91"/>
    <field name="ip.host" showname="Source or Destination Host: 239.192.75.145" hide="yes" size="4" pos="30" show="239.192.75.145" value="efc04b91"/>
  </proto>
  <proto name="udp" showname="User Datagram Protocol, Src Port: hpoms-dps-lstn (5404), Dst Port: netsupport (5405)" size="8" pos="34">
    <field name="udp.srcport" showname="Source port: hpoms-dps-lstn (5404)" size="2" pos="34" show="5404" value="151c"/>
    <field name="udp.dstport" showname="Destination port: netsupport (5405)" size="2" pos="36" show="5405" value="151d"/>
    <field name="udp.port" showname="Source or Destination Port: 5404" hide="yes" size="2" pos="34" show="5404" value="151c"/>
    <field name="udp.port" showname="Source or Destination Port: 5405" hide="yes" size="2" pos="36" show="5405" value="151d"/>
    <field name="udp.length" showname="Length: 1481" size="2" pos="38" show="1481" value="05c9"/>
    <field name="udp.checksum_coverage" showname="Checksum coverage: 1481" hide="yes" size="0" pos="38" show="1481"/>
    <field name="udp.checksum" showname="Checksum: 0x2bf9 [validation disabled]" size="2" pos="40" show="0x2bf9" value="2bf9">
      <field name="udp.checksum_good" showname="Good Checksum: False" size="2" pos="40" show="0" value="2bf9"/>
      <field name="udp.checksum_bad" showname="Bad Checksum: False" size="2" pos="40" show="0" value="2bf9"/>
    </field>
  </proto>
  <proto name="corosync_totemnet" showname="Totemnet Layer of Corosync Cluster Engine" size="1472" pos="0">
    <field name="corosync_totemnet.security_header_hash_digest" showname="Hash digest: 0d4c11cad703371152afb0c2a7d4145273eba7dd" size="20" pos="0" show="0d:4c:11:ca:d7:03:37:11:52:af:b0:c2:a7:d4:14:52:73:eb:a7:dd" value="0d4c11cad703371152afb0c2a7d4145273eba7dd"/>
    <field name="corosync_totemnet.security_header_salt" showname="Salt: 8dfc9e3393837cc41f3aab63498eae0b" size="16" pos="20" show="8d:fc:9e:33:93:83:7c:c4:1f:3a:ab:63:49:8e:ae:0b" value="8dfc9e3393837cc41f3aab63498eae0b"/>
    <field name="corosync_totemnet.security_crypto_type" showname="Cryptographic Type: SOBER (0)" size="1" pos="1471" show="0" value="00"/>
    <field name="corosync_totemnet.security_crypto_key" showname="beta" size="0" pos="0" show="" value=""/>
  </proto>
  <proto name="corosync_totemsrp" showname="Totem Single Ring Protocol implemented in Corosync Cluster Engine" size="1436" pos="36">
    <field name="corosync_totemsrp.message_header.type" showname="Type: mcast (1)" size="1" pos="36" show="1" value="01"/>
    <field name="corosync_totemsrp.message_header.encapsulated" showname="Encapsulated: not encapsulated (2)" size="1" pos="37" show="2" value="02"/>
    <field name="corosync_totemsrp.message_header.endian_detector" showname="Endian detector: 0xff22" size="2" pos="38" show="0xff22" value="22ff"/>
    <field name="corosync_totemsrp.message_header.nodeid" showname="Node ID: 1" size="4" pos="40" show="1" value="01000000"/>
    <field name="corosync_totemsrp.mcast" showname="ring ordered multicast message" size="1428" pos="44" show="" value="">
      <field name="corosync_totemsrp.mcast.system_from" showname="System from address" size="44" pos="44" show="" value="">
        <field name="corosync_totemsrp.ip_address" showname="Node IP address (interface: 0; node: 1)" size="22" pos="44" show="" value="">
          <field name="corosync_totemsrp.ip_address.nodeid" showname="Node ID: 1" size="4" pos="44" show="1" value="01000000"/>
          <field name="corosync_totemsrp.ip_address.family" showname="Address family: AF_INET (2)" size="2" pos="48" show="2" value="0200"/>
          <field name="corosync_totemsrp.ip_address.addr4" showname="Address: 192.168.151.63 (192.168.151.63)" size="4" pos="50" show="192.168.151.63" value="c0a8973f"/>
          <field name="corosync_totemsrp.ip_address.addr4_padding" showname="Address padding: 08000200c0a8973f08000400" size="12" pos="54" show="08:00:02:00:c0:a8:97:3f:08:00:04:00" value="08000200c0a8973f08000400"/>
        </field>
        <field name="corosync_totemsrp.ip_address" showname="Node IP address (interface: 1; node: 0)" size="22" pos="66" show="" value="">
          <field name="corosync_totemsrp.ip_address.nodeid" showname="Node ID: 0" size="4" pos="66" show="0" value="00000000"/>
          <field name="corosync_totemsrp.ip_address.family" showname="Address family: Unknown (0)" size="2" pos="70" show="0" value="0000"/>
          <field name="corosync_totemsrp.ip_address.addr" showname="Address: 00000000000000000000000000000000" size="16" pos="72" show="00:00:00:00:00:00:00:00:00:00:00:00:00:00:00:00" value="00000000000000000000000000000000"/>
        </field>
      </field>
      <field name="corosync_totemsrp.mcast.seq" showname="Multicast sequence number: 29" size="4" pos="88" show="29" value="1d000000"/>
      <field name="corosync_totemsrp.mcast.this_seqno" showname="This Sequence number: 269" size="4" pos="92" show="269" value="0d010000"/>
      <field name="corosync_totemsrp.memb_ring_id" showname="Member ring id (node: 1)" size="30" pos="96" show="" value="">
        <field name="corosync_totemsrp.ip_address" showname="Node IP address (node: 1)" size="22" pos="96" show="" value="">
          <field name="corosync_totemsrp.ip_address.nodeid" showname="Node ID: 1" size="4" pos="96" show="1" value="01000000"/>
          <field name="corosync_totemsrp.ip_address.family" showname="Address family: AF_INET (2)" size="2" pos="100" show="2" value="0200"/>
          <field name="corosync_totemsrp.ip_address.addr4" showname="Address: 192.168.151.63 (192.168.151.63)" size="4" pos="102" show="192.168.151.63" value="c0a8973f"/>
          <field name="corosync_totemsrp.ip_address.addr4_padding" showname="Address padding: 08000200c0a8973f08000400" size="12" pos="106" show="08:00:02:00:c0:a8:97:3f:08:00:04:00" value="08000200c0a8973f08000400"/>
        </field>
        <field name="corosync_totemsrp.memb_ring_id.seq" showname="Squence in member ring id: 436" size="8" pos="118" show="436" value="b401000000000000"/>
      </field>
      <field name="corosync_totemsrp.mcast.node_id" showname="Node id(unused?): 0" size="4" pos="126" show="0" value="00000000"/>
      <field name="corosync_totemsrp.mcast.guarantee" showname="Guarantee: 0" size="4" pos="130" show="0" value="00000000"/>
    </field>
  </proto>
  <proto name="corosync_totempg" showname="Process Group Layer of Corosync Cluster Engine" size="1338" pos="134">
    <field name="corosync_totempg.mcast_header" showname="Multicast packet header" size="4" pos="134" show="" value="">
      <field name="corosync_totempg.mcast_header.version" showname="Version: 0" size="2" pos="134" show="0" value="0000"/>
      <field name="corosync_totempg.mcast_header.type" showname="Type: -27651" size="2" pos="136" show="-27651" value="fd93"/>
    </field>
    <field name="corosync_totempg.fragmented" showname="Fragment flag: 1" size="1" pos="138" show="1" value="01"/>
    <field name="corosync_totempg.continuation" showname="Continuation flag: 0" size="1" pos="139" show="0" value="00"/>
    <field name="corosync_totempg.msg_count" showname="Count of messages: 1" size="2" pos="140" show="1" value="0100"/>
    <field name="corosync_totempg.msg_len" showname="Length of message: 1328 (msg index: 0)" size="2" pos="142" show="1328" value="3005"/>
  </proto>
</packet>


<packet>
  <proto name="geninfo" pos="0" showname="General information" size="432">
    <field name="num" pos="0" show="2" showname="Number" value="2" size="432"/>
    <field name="len" pos="0" show="432" showname="Frame Length" value="1b0" size="432"/>
    <field name="caplen" pos="0" show="432" showname="Captured Length" value="1b0" size="432"/>
    <field name="timestamp" pos="0" show="Oct 15, 2011 07:49:13.972040000 JST" showname="Captured Time" value="1318632553.972040000" size="432"/>
  </proto>
  <proto name="frame" showname="Frame 2: 432 bytes on wire (3456 bits), 432 bytes captured (3456 bits)" size="432" pos="0">
    <field name="frame.time" showname="Arrival Time: Oct 15, 2011 07:49:13.972040000 JST" size="0" pos="0" show="Oct 15, 2011 07:49:13.972040000"/>
    <field name="frame.time_epoch" showname="Epoch Time: 1318632553.972040000 seconds" size="0" pos="0" show="1318632553.972040000"/>
    <field name="frame.time_delta" showname="Time delta from previous captured frame: 0.000147000 seconds" size="0" pos="0" show="0.000147000"/>
    <field name="frame.time_delta_displayed" showname="Time delta from previous displayed frame: 0.000147000 seconds" size="0" pos="0" show="0.000147000"/>
    <field name="frame.time_relative" showname="Time since reference or first frame: 0.000147000 seconds" size="0" pos="0" show="0.000147000"/>
    <field name="frame.number" showname="Frame Number: 2" size="0" pos="0" show="2"/>
    <field name="frame.len" showname="Frame Length: 432 bytes (3456 bits)" size="0" pos="0" show="432"/>
    <field name="frame.cap_len" showname="Capture Length: 432 bytes (3456 bits)" size="0" pos="0" show="432"/>
    <field name="frame.marked" showname="Frame is marked: False" size="0" pos="0" show="0"/>
    <field name="frame.ignored" showname="Frame is ignored: False" size="0" pos="0" show="0"/>
    <field name="frame.protocols" showname="Protocols in frame: eth:ip:udp:corosync_totemnet:corosync_totempg" size="0" pos="0" show="eth:ip:udp:corosync_totemnet:corosync_totempg"/>
  </proto>
  <proto name="eth" showname="Ethernet II, Src: 54:52:00:01:00:63 (54:52:00:01:00:63), Dst: IPv4mcast_40:4b:91 (01:00:5e:40:4b:91)" size="14" pos="0">
    <field name="eth.dst" showname="Destination: IPv4mcast_40:4b:91 (01:00:5e:40:4b:91)" size="6" pos="0" show="01:00:5e:40:4b:91" value="01005e404b91">
      <field name="eth.addr" showname="Address: IPv4mcast_40:4b:91 (01:00:5e:40:4b:91)" size="6" pos="0" show="01:00:5e:40:4b:91" value="01005e404b91"/>
      <field name="eth.ig" showname=".... ...1 .... .... .... .... = IG bit: Group address (multicast/broadcast)" size="3" pos="0" show="1" value="1" unmaskedvalue="01005e"/>
      <field name="eth.lg" showname=".... ..0. .... .... .... .... = LG bit: Globally unique address (factory default)" size="3" pos="0" show="0" value="0" unmaskedvalue="01005e"/>
    </field>
    <field name="eth.src" showname="Source: 54:52:00:01:00:63 (54:52:00:01:00:63)" size="6" pos="6" show="54:52:00:01:00:63" value="545200010063">
      <field name="eth.addr" showname="Address: 54:52:00:01:00:63 (54:52:00:01:00:63)" size="6" pos="6" show="54:52:00:01:00:63" value="545200010063"/>
      <field name="eth.ig" showname=".... ...0 .... .... .... .... = IG bit: Individual address (unicast)" size="3" pos="6" show="0" value="0" unmaskedvalue="545200"/>
      <field name="eth.lg" showname=".... ..0. .... .... .... .... = LG bit: Globally unique address (factory default)" size="3" pos="6" show="0" value="0" unmaskedvalue="545200"/>
    </field>
    <field name="eth.type" showname="Type: IP (0x0800)" size="2" pos="12" show="0x0800" value="0800"/>
  </proto>
  <proto name="ip" showname="Internet Protocol Version 4, Src: 192.168.151.63 (192.168.151.63), Dst: 239.192.75.145 (239.192.75.145)" size="20" pos="14">
    <field name="ip.version" showname="Version: 4" size="1" pos="14" show="4" value="45"/>
    <field name="ip.hdr_len" showname="Header length: 20 bytes" size="1" pos="14" show="20" value="45"/>
    <field name="ip.dsfield" showname="Differentiated Services Field: 0x00 (DSCP 0x00: Default; ECN: 0x00: Not-ECT (Not ECN-Capable Transport))" size="1" pos="15" show="0" value="00">
      <field name="ip.dsfield.dscp" showname="0000 00.. = Differentiated Services Codepoint: Default (0x00)" size="1" pos="15" show="0x00" value="0" unmaskedvalue="00"/>
      <field name="ip.dsfield.ecn" showname=".... ..00 = Explicit Congestion Notification: Not-ECT (Not ECN-Capable Transport) (0x00)" size="1" pos="15" show="0x00" value="0" unmaskedvalue="00"/>
    </field>
    <field name="ip.len" showname="Total Length: 418" size="2" pos="16" show="418" value="01a2"/>
    <field name="ip.id" showname="Identification: 0x0000 (0)" size="2" pos="18" show="0x0000" value="0000"/>
    <field name="ip.flags" showname="Flags: 0x02 (Don&apos;t Fragment)" size="1" pos="20" show="0x02" value="40">
      <field name="ip.flags.rb" showname="0... .... = Reserved bit: Not set" size="1" pos="20" show="0" value="40"/>
      <field name="ip.flags.df" showname=".1.. .... = Don&apos;t fragment: Set" size="1" pos="20" show="1" value="40"/>
      <field name="ip.flags.mf" showname="..0. .... = More fragments: Not set" size="1" pos="20" show="0" value="40"/>
    </field>
    <field name="ip.frag_offset" showname="Fragment offset: 0" size="2" pos="20" show="0" value="4000"/>
    <field name="ip.ttl" showname="Time to live: 1" size="1" pos="22" show="1" value="01"/>
    <field name="ip.proto" showname="Protocol: UDP (17)" size="1" pos="23" show="17" value="11"/>
    <field name="ip.checksum" showname="Header checksum: 0xe511 [correct]" size="2" pos="24" show="0xe511" value="e511">
      <field name="ip.checksum_good" showname="Good: True" size="2" pos="24" show="1" value="e511"/>
      <field name="ip.checksum_bad" showname="Bad: False" size="2" pos="24" show="0" value="e511"/>
    </field>
    <field name="ip.src" showname="Source: 192.168.151.63 (192.168.151.63)" size="4" pos="26" show="192.168.151.63" value="c0a8973f"/>
    <field name="ip.addr" showname="Source or Destination Address: 192.168.151.63 (192.168.151.63)" hide="yes" size="4" pos="26" show="192.168.151.63" value="c0a8973f"/>
    <field name="ip.src_host" showname="Source Host: 192.168.151.63" hide="yes" size="4" pos="26" show="192.168.151.63" value="c0a8973f"/>
    <field name="ip.host" showname="Source or Destination Host: 192.168.151.63" hide="yes" size="4" pos="26" show="192.168.151.63" value="c0a8973f"/>
    <field name="ip.dst" showname="Destination: 239.192.75.145 (239.192.75.145)" size="4" pos="30" show="239.192.75.145" value="efc04b91"/>
    <field name="ip.addr" showname="Source or Destination Address: 239.192.75.145 (239.192.75.145)" hide="yes" size="4" pos="30" show="239.192.75.145" value="efc04b91"/>
    <field name="ip.dst_host" showname="Destination Host: 239.192.75.145" hide="yes" size="4" pos="30" show="239.192.75.145" value="efc04b91"/>
    <field name="ip.host" showname="Source or Destination Host: 239.192.75.145" hide="yes" size="4" pos="30" show="239.192.75.145" value="efc04b91"/>
  </proto>
  <proto name="udp" showname="User Datagram Protocol, Src Port: hpoms-dps-lstn (5404), Dst Port: netsupport (5405)" size="8" pos="34">
    <field name="udp.srcport" showname="Source port: hpoms-dps-lstn (5404)" size="2" pos="34" show="5404" value="151c"/>
    <field name="udp.dstport" showname="Destination port: netsupport (5405)" size="2" pos="36" show="5405" value="151d"/>
    <field name="udp.port" showname="Source or Destination Port: 5404" hide="yes" size="2" pos="34" show="5404" value="151c"/>
    <field name="udp.port" showname="Source or Destination Port: 5405" hide="yes" size="2" pos="36" show="5405" value="151d"/>
    <field name="udp.length" showname="Length: 398" size="2" pos="38" show="398" value="018e"/>
    <field name="udp.checksum_coverage" showname="Checksum coverage: 398" hide="yes" size="0" pos="38" show="398"/>
    <field name="udp.checksum" showname="Checksum: 0xc0bb [validation disabled]" size="2" pos="40" show="0xc0bb" value="c0bb">
      <field name="udp.checksum_good" showname="Good Checksum: False" size="2" pos="40" show="0" value="c0bb"/>
      <field name="udp.checksum_bad" showname="Bad Checksum: False" size="2" pos="40" show="0" value="c0bb"/>
    </field>
  </proto>
  <proto name="corosync_totemnet" showname="Totemnet Layer of Corosync Cluster Engine" size="389" pos="0">
    <field name="corosync_totemnet.security_header_hash_digest" showname="Hash digest: 1808e775087da8091ba0b630f4769020232bb450" size="20" pos="0" show="18:08:e7:75:08:7d:a8:09:1b:a0:b6:30:f4:76:90:20:23:2b:b4:50" value="1808e775087da8091ba0b630f4769020232bb450"/>
    <field name="corosync_totemnet.security_header_salt" showname="Salt: b7dba2776b815c007925ca4ec51f0d11" size="16" pos="20" show="b7:db:a2:77:6b:81:5c:00:79:25:ca:4e:c5:1f:0d:11" value="b7dba2776b815c007925ca4ec51f0d11"/>
    <field name="corosync_totemnet.security_crypto_type" showname="Cryptographic Type: SOBER (0)" size="1" pos="388" show="0" value="00"/>
    <field name="corosync_totemnet.security_crypto_key" showname="beta" size="0" pos="0" show="" value=""/>
  </proto>
  <proto name="corosync_totemsrp" showname="Totem Single Ring Protocol implemented in Corosync Cluster Engine" size="353" pos="36">
    <field name="corosync_totemsrp.message_header.type" showname="Type: mcast (1)" size="1" pos="36" show="1" value="01"/>
    <field name="corosync_totemsrp.message_header.encapsulated" showname="Encapsulated: not encapsulated (2)" size="1" pos="37" show="2" value="02"/>
    <field name="corosync_totemsrp.message_header.endian_detector" showname="Endian detector: 0xff22" size="2" pos="38" show="0xff22" value="22ff"/>
    <field name="corosync_totemsrp.message_header.nodeid" showname="Node ID: 1" size="4" pos="40" show="1" value="01000000"/>
    <field name="corosync_totemsrp.mcast" showname="ring ordered multicast message" size="345" pos="44" show="" value="">
      <field name="corosync_totemsrp.mcast.system_from" showname="System from address" size="44" pos="44" show="" value="">
        <field name="corosync_totemsrp.ip_address" showname="Node IP address (interface: 0; node: 1)" size="22" pos="44" show="" value="">
          <field name="corosync_totemsrp.ip_address.nodeid" showname="Node ID: 1" size="4" pos="44" show="1" value="01000000"/>
          <field name="corosync_totemsrp.ip_address.family" showname="Address family: AF_INET (2)" size="2" pos="48" show="2" value="0200"/>
          <field name="corosync_totemsrp.ip_address.addr4" showname="Address: 192.168.151.63 (192.168.151.63)" size="4" pos="50" show="192.168.151.63" value="c0a8973f"/>
          <field name="corosync_totemsrp.ip_address.addr4_padding" showname="Address padding: 08000200c0a8973f08000400" size="12" pos="54" show="08:00:02:00:c0:a8:97:3f:08:00:04:00" value="08000200c0a8973f08000400"/>
        </field>
        <field name="corosync_totemsrp.ip_address" showname="Node IP address (interface: 1; node: 0)" size="22" pos="66" show="" value="">
          <field name="corosync_totemsrp.ip_address.nodeid" showname="Node ID: 0" size="4" pos="66" show="0" value="00000000"/>
          <field name="corosync_totemsrp.ip_address.family" showname="Address family: Unknown (0)" size="2" pos="70" show="0" value="0000"/>
          <field name="corosync_totemsrp.ip_address.addr" showname="Address: 00000000000000000000000000000000" size="16" pos="72" show="00:00:00:00:00:00:00:00:00:00:00:00:00:00:00:00" value="00000000000000000000000000000000"/>
        </field>
      </field>
      <field name="corosync_totemsrp.mcast.seq" showname="Multicast sequence number: 30" size="4" pos="88" show="30" value="1e000000"/>
      <field name="corosync_totemsrp.mcast.this_seqno" showname="This Sequence number: 270" size="4" pos="92" show="270" value="0e010000"/>
      <field name="corosync_totemsrp.memb_ring_id" showname="Member ring id (node: 1)" size="30" pos="96" show="" value="">
        <field name="corosync_totemsrp.ip_address" showname="Node IP address (node: 1)" size="22" pos="96" show="" value="">
          <field name="corosync_totemsrp.ip_address.nodeid" showname="Node ID: 1" size="4" pos="96" show="1" value="01000000"/>
          <field name="corosync_totemsrp.ip_address.family" showname="Address family: AF_INET (2)" size="2" pos="100" show="2" value="0200"/>
          <field name="corosync_totemsrp.ip_address.addr4" showname="Address: 192.168.151.63 (192.168.151.63)" size="4" pos="102" show="192.168.151.63" value="c0a8973f"/>
          <field name="corosync_totemsrp.ip_address.addr4_padding" showname="Address padding: 08000200c0a8973f08000400" size="12" pos="106" show="08:00:02:00:c0:a8:97:3f:08:00:04:00" value="08000200c0a8973f08000400"/>
        </field>
        <field name="corosync_totemsrp.memb_ring_id.seq" showname="Squence in member ring id: 436" size="8" pos="118" show="436" value="b401000000000000"/>
      </field>
      <field name="corosync_totemsrp.mcast.node_id" showname="Node id(unused?): 0" size="4" pos="126" show="0" value="00000000"/>
      <field name="corosync_totemsrp.mcast.guarantee" showname="Guarantee: 0" size="4" pos="130" show="0" value="00000000"/>
    </field>
  </proto>
  <proto name="corosync_totempg" showname="Process Group Layer of Corosync Cluster Engine" size="255" pos="134">
    <field name="corosync_totempg.mcast_header" showname="Multicast packet header" size="4" pos="134" show="" value="">
      <field name="corosync_totempg.mcast_header.version" showname="Version: 0" size="2" pos="134" show="0" value="0000"/>
      <field name="corosync_totempg.mcast_header.type" showname="Type: 357" size="2" pos="136" show="357" value="6501"/>
    </field>
    <field name="corosync_totempg.fragmented" showname="Fragment flag: 0" size="1" pos="138" show="0" value="00"/>
    <field name="corosync_totempg.continuation" showname="Continuation flag: 1" size="1" pos="139" show="1" value="01"/>
    <field name="corosync_totempg.msg_count" showname="Count of messages: 1" size="2" pos="140" show="1" value="0100"/>
    <field name="corosync_totempg.msg_len" showname="Length of message: 245 (msg index: 0)" size="2" pos="142" show="245" value="f500"/>
    <field name="corosync_totempg.message_fragments" showname="2 Corosync totempg message fragments (1573 bytes): #1(1328), #2(245)" size="1573" pos="0" show="" value="">
      <field name="corosync_totempg.message_fragment" showname="Frame: 1, payload: 0-1327 (1328 bytes)" size="1328" pos="0" show="1" value="0100010061200600000000000005000800000000000100000000000000000000000000000000000000000000000000000000000000000000000000000000000000000000000000000000000000000000000000000000000000000000000000000000000000000000000000000000000000000000000000000000000000000000000000000000000000000000000000000000000000000000000000000000000000000000000000000000000000000000000000000000000000000000000000000000000000000000000000000000000000000000000000000000000000000000000000000000000000000000000000000000000000000000000000000000000000000000000000000000000000000000000000000000000000000000000000000000000000000000000000000000000000000000000000000000000000000000000000000000000000000000000000000000000000000000000000000000000000000000000000000000000000000000000000000000000000000000000000000000000000000000000000000000000000000000000000000000000000000000000000000000000000000000000000000000000000000000000000000000000000000000000000000000000000000000000000000000000000000000000000000000000000000000000000000000000000000000000000000000000000000000000000000000000000000000000000000000000000000000000000000000000000000000000000000000000000000000000000000000000000000000000000000000000000000000000000000000000000000000000000000000000000000000000000000000000000000000000000000000000000000000000000000000000000000000000000000000000000000000000000000000000000000000000000000000000000000000000000000000000000000000000000000000000000000000000000000000000000000000000000000000000000000000000000000000000000000000000000000000000000000000000000000000000000000000000000000000000000000000000000000000000000000000000000000000000000000000000000000000000000000000000000000000000000000000000000000000000000000000000000000000000000000000000000000000000000000000000000000000000000000000000000000000000000000000000000000000000000000000000000000000000000000000000000000000000000000000000000000000000000000000000000000000000000000000000000000000000000000000000000000000000000000000000000000000000000000000000000000000000000000000000000000000000000000000000000000000000000000000000000000000000000000000000000000000000000000000000000000000000000000000000000000000000000000000000000000000000000000000000000000000000000000000000000000000000000000000000000000000000000000000000000000000000000000000000000000000000000000000000000000000000000000000000000000000000000000000000000000000000000000000000000000000000000000000000000000000000000000000000000000000000000000000000000000000000000000000000000000000000000000000000000000000000000000000000000000000000000000000000000000000000000000000000000000000000000000000000000000000000000000000000000000000000000000000000000000000000000000000000000000000000000000000"/>
      <field name="corosync_totempg.message_fragment" showname="Frame: 2, payload: 1328-1572 (245 bytes)" size="245" pos="1328" show="2" value="0000000000000000000000000000000000000000000000000000000000000000000000000000000000000000000000000000000000000000000000000000000000000000000000000000000000000000000000000000000000000000000000000000000000000000000000000000000000000000000000000000000000000000000000000000000000000000000000000000000000000000000000000000000000000000000000000000000000000000000000000000000000000000000000000000000000000000000000000000000000000000000000000000000000000000000000000000000000000000000000000000000000"/>
      <field name="corosync_totempg.message_fragment.count" showname="Corosync totempg message fragment count: 2" size="0" pos="0" show="2"/>
      <field name="corosync_totempg.message_reassembled_length" showname="Corosync totempg message reassembled length: 1573" size="0" pos="0" show="1573"/>
    </field>
    <field name="corosync_totempg.mcast_message" showname="Multicast packet message (msg index: 0)" size="245" pos="10" show="" value="">
      <field name="corosync_totempg.group_count" showname="Group count: 0" size="2" pos="10" show="0" value="0000"/>
    </field>
  </proto>
</packet>


</pdml>
